Archive member included because of file (symbol)

/home/rk3288-sdk/prebuilts/gcc/linux-x86/arm/arm-eabi-4.7/bin/../lib/gcc/arm-eabi/4.7/libgcc.a(_udivsi3.o)
                              arch/arm/cpu/armv7/rk32xx/built-in.o (__aeabi_uidiv)
/home/rk3288-sdk/prebuilts/gcc/linux-x86/arm/arm-eabi-4.7/bin/../lib/gcc/arm-eabi/4.7/libgcc.a(_divsi3.o)
                              board/rockchip/common/built-in.o (__aeabi_idiv)
/home/rk3288-sdk/prebuilts/gcc/linux-x86/arm/arm-eabi-4.7/bin/../lib/gcc/arm-eabi/4.7/libgcc.a(_dvmd_tls.o)
                              /home/rk3288-sdk/prebuilts/gcc/linux-x86/arm/arm-eabi-4.7/bin/../lib/gcc/arm-eabi/4.7/libgcc.a(_udivsi3.o) (__aeabi_idiv0)
/home/rk3288-sdk/prebuilts/gcc/linux-x86/arm/arm-eabi-4.7/bin/../lib/gcc/arm-eabi/4.7/libgcc.a(_lshrdi3.o)
                              lib/built-in.o (__aeabi_llsr)
/home/rk3288-sdk/prebuilts/gcc/linux-x86/arm/arm-eabi-4.7/bin/../lib/gcc/arm-eabi/4.7/libgcc.a(_ashldi3.o)
                              lib/built-in.o (__aeabi_llsl)
/home/rk3288-sdk/prebuilts/gcc/linux-x86/arm/arm-eabi-4.7/bin/../lib/gcc/arm-eabi/4.7/libgcc.a(_aeabi_uldivmod.o)
                              arch/arm/cpu/armv7/rk32xx/built-in.o (__aeabi_uldivmod)
/home/rk3288-sdk/prebuilts/gcc/linux-x86/arm/arm-eabi-4.7/bin/../lib/gcc/arm-eabi/4.7/libgcc.a(bpabi.o)
                              /home/rk3288-sdk/prebuilts/gcc/linux-x86/arm/arm-eabi-4.7/bin/../lib/gcc/arm-eabi/4.7/libgcc.a(_aeabi_uldivmod.o) (__gnu_uldivmod_helper)
/home/rk3288-sdk/prebuilts/gcc/linux-x86/arm/arm-eabi-4.7/bin/../lib/gcc/arm-eabi/4.7/libgcc.a(_divdi3.o)
                              /home/rk3288-sdk/prebuilts/gcc/linux-x86/arm/arm-eabi-4.7/bin/../lib/gcc/arm-eabi/4.7/libgcc.a(bpabi.o) (__divdi3)
/home/rk3288-sdk/prebuilts/gcc/linux-x86/arm/arm-eabi-4.7/bin/../lib/gcc/arm-eabi/4.7/libgcc.a(_udivdi3.o)
                              /home/rk3288-sdk/prebuilts/gcc/linux-x86/arm/arm-eabi-4.7/bin/../lib/gcc/arm-eabi/4.7/libgcc.a(bpabi.o) (__udivdi3)

Discarded input sections

 .data          0x0000000000000000        0x0 arch/arm/cpu/armv7/start.o
 .bss           0x0000000000000000        0x0 arch/arm/cpu/armv7/start.o
 .text          0x0000000000000000        0x0 arch/arm/cpu/armv7/built-in.o
 .text.mmu_page_table_flush
                0x0000000000000000       0x24 arch/arm/cpu/armv7/built-in.o
 .text.sdelay   0x0000000000000000        0xc arch/arm/cpu/armv7/built-in.o
 .text.wait_on_value
                0x0000000000000000       0x34 arch/arm/cpu/armv7/built-in.o
 .data          0x0000000000000000        0x0 arch/arm/cpu/armv7/built-in.o
 .bss           0x0000000000000000        0x0 arch/arm/cpu/armv7/built-in.o
 .text.get_usec_timer
                0x0000000000000000       0xf4 arch/arm/cpu/armv7/rk32xx/built-in.o
 .text.get_tbclk
                0x0000000000000000        0x8 arch/arm/cpu/armv7/rk32xx/built-in.o
 .text.rkclk_pll_mode
                0x0000000000000000       0xc0 arch/arm/cpu/armv7/rk32xx/built-in.o
 .text.rkclk_set_pll_rate_by_id
                0x0000000000000000       0x28 arch/arm/cpu/armv7/rk32xx/built-in.o
 .text.rkclk_get_pll_rate_by_id
                0x0000000000000000        0x4 arch/arm/cpu/armv7/rk32xx/built-in.o
 .text.rkclk_set_nandc_div
                0x0000000000000000       0x80 arch/arm/cpu/armv7/rk32xx/built-in.o
 .text.rkclk_set_mmc_clk_freq
                0x0000000000000000      0x138 arch/arm/cpu/armv7/rk32xx/built-in.o
 .text.rkclk_set_mmc_tuning
                0x0000000000000000       0x60 arch/arm/cpu/armv7/rk32xx/built-in.o
 .text.rkclk_get_spi_clk
                0x0000000000000000       0x4c arch/arm/cpu/armv7/rk32xx/built-in.o
 .text.gic_handler_disable
                0x0000000000000000       0x58 arch/arm/cpu/armv7/rk32xx/built-in.o
 .text.gic_set_irq_type
                0x0000000000000000       0xd4 arch/arm/cpu/armv7/rk32xx/built-in.o
 .text.gpio_irq_set_type
                0x0000000000000000      0x124 arch/arm/cpu/armv7/rk32xx/built-in.o
 .text.gpio_irq_disable
                0x0000000000000000       0x4c arch/arm/cpu/armv7/rk32xx/built-in.o
 .text.irq_handler_disable
                0x0000000000000000       0x30 arch/arm/cpu/armv7/rk32xx/built-in.o
 .text.irq_set_irq_type
                0x0000000000000000       0x30 arch/arm/cpu/armv7/rk32xx/built-in.o
 .text.irq_uninstall_handler
                0x0000000000000000       0x18 arch/arm/cpu/armv7/rk32xx/built-in.o
 .text.rk_pm_wakeup_gpio_init
                0x0000000000000000       0x6c arch/arm/cpu/armv7/rk32xx/built-in.o
 .text.rk_pm_wakeup_gpio_deinit
                0x0000000000000000       0x58 arch/arm/cpu/armv7/rk32xx/built-in.o
 .text.rk_pm_enter
                0x0000000000000000       0x80 arch/arm/cpu/armv7/rk32xx/built-in.o
 .data          0x0000000000000000        0x0 arch/arm/cpu/armv7/rk32xx/built-in.o
 .bss           0x0000000000000000        0x0 arch/arm/cpu/armv7/rk32xx/built-in.o
 .text.flush_cache
                0x0000000000000000        0x4 arch/arm/lib/built-in.o
 .text.flush_dcache_all
                0x0000000000000000        0xc arch/arm/lib/built-in.o
 .text.enable_caches
                0x0000000000000000        0xc arch/arm/lib/built-in.o
 .text.arm_init_before_mmu
                0x0000000000000000        0x4 arch/arm/lib/built-in.o
 .text.mmu_page_table_flush
                0x0000000000000000        0x4 arch/arm/lib/built-in.o
 .text.mmu_set_region_dcache_behaviour
                0x0000000000000000       0x50 arch/arm/lib/built-in.o
 .text.icache_enable
                0x0000000000000000       0x18 arch/arm/lib/built-in.o
 .text.icache_status
                0x0000000000000000        0xc arch/arm/lib/built-in.o
 .text.dcache_status
                0x0000000000000000        0xc arch/arm/lib/built-in.o
 .data          0x0000000000000000        0x0 arch/arm/lib/built-in.o
 .__secure_start
                0x0000000000000000        0x0 arch/arm/lib/built-in.o
 .__secure_end  0x0000000000000000        0x0 arch/arm/lib/built-in.o
 .bss           0x0000000000000000        0x0 arch/arm/lib/built-in.o
 .text          0x0000000000000000        0x0 board/rockchip/common/built-in.o
 .text.blk_SHA1_Block
                0x0000000000000000     0x1530 board/rockchip/common/built-in.o
 .text.SHA_init
                0x0000000000000000       0x4c board/rockchip/common/built-in.o
 .text.SHA_update
                0x0000000000000000       0xa4 board/rockchip/common/built-in.o
 .text.SHA_final
                0x0000000000000000       0xe0 board/rockchip/common/built-in.o
 .text.P_RC4_ext
                0x0000000000000000      0x120 board/rockchip/common/built-in.o
 .text.DRVDelayMs
                0x0000000000000000        0xc board/rockchip/common/built-in.o
 .text.EmmcPowerEn
                0x0000000000000000       0x2c board/rockchip/common/built-in.o
 .text.SCUSetSDClkFreq
                0x0000000000000000        0x8 board/rockchip/common/built-in.o
 .text.SCUSetTuning
                0x0000000000000000        0x8 board/rockchip/common/built-in.o
 .text.GetBackupParam
                0x0000000000000000        0x8 board/rockchip/common/built-in.o
 .text.BackupParam
                0x0000000000000000        0x8 board/rockchip/common/built-in.o
 .text.dump_disk_partitions
                0x0000000000000000       0x78 board/rockchip/common/built-in.o
 .text.rkidb_get_rc4_flag
                0x0000000000000000       0x50 board/rockchip/common/built-in.o
 .text.rkidb_get_hdcp_key
                0x0000000000000000       0x4c board/rockchip/common/built-in.o
 .text.rkidb_erase_drm_key
                0x0000000000000000       0x44 board/rockchip/common/built-in.o
 .text.rkkey_power_state
                0x0000000000000000       0x28 board/rockchip/common/built-in.o
 .text.rkkey_get_powerkey
                0x0000000000000000       0x1c board/rockchip/common/built-in.o
 .text.powerOff
                0x0000000000000000       0x28 board/rockchip/common/built-in.o
 .text.board_fbt_is_charging
                0x0000000000000000        0x4 board/rockchip/common/built-in.o
 .text.MMC_GetMID
                0x0000000000000000       0x4c board/rockchip/common/built-in.o
 .text._MMCDoTuning
                0x0000000000000000       0xe8 board/rockchip/common/built-in.o
 .text._SDCISTHandle
                0x0000000000000000      0x230 board/rockchip/common/built-in.o
 .text._SDC0IST
                0x0000000000000000        0x8 board/rockchip/common/built-in.o
 .text._SDC1IST
                0x0000000000000000        0x8 board/rockchip/common/built-in.o
 .text._SDC2IST
                0x0000000000000000        0x8 board/rockchip/common/built-in.o
 .text.SDC_IsCardPresence
                0x0000000000000000        0x8 board/rockchip/common/built-in.o
 .text.eMMC_Switch_ToMaskRom
                0x0000000000000000       0x54 board/rockchip/common/built-in.o
 .text.SDC_ControlClock
                0x0000000000000000       0x74 board/rockchip/common/built-in.o
 .text.SDC_SetDDRTuning
                0x0000000000000000       0x10 board/rockchip/common/built-in.o
 .text.SDC_SetDDRMode
                0x0000000000000000       0x70 board/rockchip/common/built-in.o
 .text.SDC_WaitCardBusy
                0x0000000000000000        0x4 board/rockchip/common/built-in.o
 .text.SDM_Close
                0x0000000000000000        0x8 board/rockchip/common/built-in.o
 .text.SDM_SendCmd
                0x0000000000000000       0xb8 board/rockchip/common/built-in.o
 .text.SDOAM_GetMsg
                0x0000000000000000        0x8 board/rockchip/common/built-in.o
 .text.SDOAM_SetEvent
                0x0000000000000000        0x4 board/rockchip/common/built-in.o
 .text.SDOAM_GetEvent
                0x0000000000000000        0x4 board/rockchip/common/built-in.o
 .text.SDPAM_SetTuning
                0x0000000000000000       0x20 board/rockchip/common/built-in.o
 .text.SDPAM_SetSrcFreq
                0x0000000000000000       0x2c board/rockchip/common/built-in.o
 .text.SDPAM_INTCRegISR
                0x0000000000000000       0x2c board/rockchip/common/built-in.o
 .text.SDPAM_INTCEnableIRQ
                0x0000000000000000       0x2c board/rockchip/common/built-in.o
 .text.SdmmcSDMInit
                0x0000000000000000       0x14 board/rockchip/common/built-in.o
 .text.BootFromSdCard
                0x0000000000000000       0x48 board/rockchip/common/built-in.o
 .text.CryptoSHACheck
                0x0000000000000000       0x2c board/rockchip/common/built-in.o
 .text.CryptoRSACheck
                0x0000000000000000       0x30 board/rockchip/common/built-in.o
 .text.CryptoRSAVerify
                0x0000000000000000       0x48 board/rockchip/common/built-in.o
 .text.SecureBootSecureDisable
                0x0000000000000000        0x8 board/rockchip/common/built-in.o
 .rodata.pad.8974
                0x0000000000000000       0x40 board/rockchip/common/built-in.o
 .data          0x0000000000000000        0x0 board/rockchip/common/built-in.o
 .data.EMMC_MIDTbl
                0x0000000000000000        0xc board/rockchip/common/built-in.o
 .bss           0x0000000000000000        0x0 board/rockchip/common/built-in.o
 .bss.parameter_lba
                0x0000000000000000        0x4 board/rockchip/common/built-in.o
 .text          0x0000000000000000        0x0 board/rockchip/rk32xx/built-in.o
 .data          0x0000000000000000        0x0 board/rockchip/rk32xx/built-in.o
 .bss           0x0000000000000000        0x0 board/rockchip/rk32xx/built-in.o
 .text          0x0000000000000000        0x0 common/built-in.o
 .text.cmd_process_error
                0x0000000000000000       0x30 common/built-in.o
 .text.hash_finish_crc32
                0x0000000000000000       0x30 common/built-in.o
 .text.hash_update_crc32
                0x0000000000000000       0x24 common/built-in.o
 .text.hash_init_crc32
                0x0000000000000000       0x24 common/built-in.o
 .text.hash_lookup_algo
                0x0000000000000000       0x28 common/built-in.o
 .text.hash_progressive_lookup_algo
                0x0000000000000000       0x3c common/built-in.o
 .text.hash_show
                0x0000000000000000       0x58 common/built-in.o
 .text.hash_block
                0x0000000000000000       0x70 common/built-in.o
 .text.hash_command
                0x0000000000000000       0xb0 common/built-in.o
 .text.unset_local_var
                0x0000000000000000       0xa4 common/built-in.o
 .text.cli_simple_parse_line
                0x0000000000000000       0x88 common/built-in.o
 .text.cli_simple_process_macros
                0x0000000000000000      0x208 common/built-in.o
 .text.cli_simple_run_command
                0x0000000000000000      0x150 common/built-in.o
 .text.cli_simple_loop
                0x0000000000000000       0x78 common/built-in.o
 .text.cli_simple_run_command_list
                0x0000000000000000       0x7c common/built-in.o
 .text.run_command_repeatable
                0x0000000000000000       0x1c common/built-in.o
 .text.arch_cpu_init
                0x0000000000000000        0x8 common/built-in.o
 .text.red_led_off
                0x0000000000000000        0x4 common/built-in.o
 .text.green_led_on
                0x0000000000000000        0x4 common/built-in.o
 .text.green_led_off
                0x0000000000000000        0x4 common/built-in.o
 .text.yellow_led_on
                0x0000000000000000        0x4 common/built-in.o
 .text.yellow_led_off
                0x0000000000000000        0x4 common/built-in.o
 .text.blue_led_on
                0x0000000000000000        0x4 common/built-in.o
 .text.blue_led_off
                0x0000000000000000        0x4 common/built-in.o
 .text.dram_init_banksize
                0x0000000000000000       0x20 common/built-in.o
 .text.arch_reserve_stacks
                0x0000000000000000        0x8 common/built-in.o
 .text.board_flash_wp_on
                0x0000000000000000        0x8 common/built-in.o
 .text.fixup_cpu
                0x0000000000000000        0x8 common/built-in.o
 .text.checkboard
                0x0000000000000000       0x18 common/built-in.o
 .text.bootm_maybe_autostart
                0x0000000000000000       0x74 common/built-in.o
 .text.bootm_disable_interrupts
                0x0000000000000000        0x4 common/built-in.o
 .text.env_flags_parse_varaccess_from_binflags
                0x0000000000000000       0x4c common/built-in.o
 .text.gunzip_bmp
                0x0000000000000000        0x8 common/built-in.o
 .text.of_bus_default_map
                0x0000000000000000       0xe4 common/built-in.o
 .text.of_bus_default_count_cells
                0x0000000000000000       0x74 common/built-in.o
 .text.fdt_read_prop
                0x0000000000000000       0x68 common/built-in.o
 .text.of_bus_default_translate
                0x0000000000000000       0xa8 common/built-in.o
 .text.fdt_getprop_u32_default
                0x0000000000000000       0x3c common/built-in.o
 .text.do_fixup_by_path_u32
                0x0000000000000000       0x2c common/built-in.o
 .text.do_fixup_by_prop
                0x0000000000000000       0x94 common/built-in.o
 .text.do_fixup_by_prop_u32
                0x0000000000000000       0x3c common/built-in.o
 .text.do_fixup_by_compat
                0x0000000000000000       0x84 common/built-in.o
 .text.do_fixup_by_compat_u32
                0x0000000000000000       0x2c common/built-in.o
 .text.fdt_increase_size
                0x0000000000000000       0x14 common/built-in.o
 .text.fdt_del_node_and_alias
                0x0000000000000000       0x44 common/built-in.o
 .text.fdt_translate_address
                0x0000000000000000      0x2a4 common/built-in.o
 .text.fdt_node_offset_by_compat_reg
                0x0000000000000000       0x84 common/built-in.o
 .text.fdt_alloc_phandle
                0x0000000000000000       0x58 common/built-in.o
 .text.fdt_set_phandle
                0x0000000000000000       0x60 common/built-in.o
 .text.fdt_create_phandle
                0x0000000000000000       0x64 common/built-in.o
 .text.fdt_set_node_status
                0x0000000000000000      0x10c common/built-in.o
 .text.fdt_set_status_by_alias
                0x0000000000000000       0x2c common/built-in.o
 .text.fdt_add_edid
                0x0000000000000000       0xa8 common/built-in.o
 .text.fdt_verify_alias_address
                0x0000000000000000       0xcc common/built-in.o
 .text.fdt_get_base_address
                0x0000000000000000       0x8c common/built-in.o
 .text.fdt_read_range
                0x0000000000000000      0x148 common/built-in.o
 .text.fbt_log  0x0000000000000000       0x8c common/built-in.o
 .text.fbt_send_info
                0x0000000000000000       0x20 common/built-in.o
 .text.splash_screen_prepare
                0x0000000000000000        0x8 common/built-in.o
 .text.lcd_set_flush_dcache
                0x0000000000000000       0x18 common/built-in.o
 .text.lcd_enable_flip
                0x0000000000000000       0x10 common/built-in.o
 .text.lcd_setba
                0x0000000000000000       0xa0 common/built-in.o
 .text.lcd_setmem
                0x0000000000000000       0x30 common/built-in.o
 .text.lcd_get_pixel_width
                0x0000000000000000       0x10 common/built-in.o
 .text.lcd_get_pixel_height
                0x0000000000000000       0x10 common/built-in.o
 .text.get_env_id
                0x0000000000000000       0x10 common/built-in.o
 .text.env_import
                0x0000000000000000       0xdc common/built-in.o
 .text.env_export
                0x0000000000000000       0xa0 common/built-in.o
 .text.fputs    0x0000000000000000       0x24 common/built-in.o
 .text.fprintf  0x0000000000000000       0x58 common/built-in.o
 .text.confirm_yesno
                0x0000000000000000       0xd0 common/built-in.o
 .text.disable_ctrlc
                0x0000000000000000       0x18 common/built-in.o
 .text.stdio_print_current_devices
                0x0000000000000000        0x4 common/built-in.o
 .text.cfree    0x0000000000000000        0x4 common/built-in.o
 .text.pvalloc  0x0000000000000000       0x18 common/built-in.o
 .text.valloc   0x0000000000000000        0xc common/built-in.o
 .text.malloc_usable_size
                0x0000000000000000       0x3c common/built-in.o
 .text.mallopt  0x0000000000000000       0x68 common/built-in.o
 .text.get_table_entry_id
                0x0000000000000000       0x50 common/built-in.o
 .text.genimg_get_os_id
                0x0000000000000000       0x18 common/built-in.o
 .text.genimg_get_arch_id
                0x0000000000000000       0x18 common/built-in.o
 .text.genimg_get_type_id
                0x0000000000000000       0x18 common/built-in.o
 .text.genimg_get_comp_id
                0x0000000000000000       0x18 common/built-in.o
 .text.genimg_get_kernel_addr
                0x0000000000000000       0x20 common/built-in.o
 .text.arch_fixup_fdt
                0x0000000000000000        0x8 common/built-in.o
 .text.stdio_get_list
                0x0000000000000000        0xc common/built-in.o
 .text.stdio_init
                0x0000000000000000       0x14 common/built-in.o
 .rodata.__FUNCTION__.7318
                0x0000000000000000       0x17 common/built-in.o
 .rodata.__func__.6457
                0x0000000000000000        0xb common/built-in.o
 .rodata.__func__.6464
                0x0000000000000000        0xb common/built-in.o
 .data          0x0000000000000000        0x0 common/built-in.o
 .data.hash_algo
                0x0000000000000000       0x1c common/built-in.o
 .data.of_busses
                0x0000000000000000       0x14 common/built-in.o
 .data.mmap_threshold
                0x0000000000000000        0x4 common/built-in.o
 .data.stdio_names
                0x0000000000000000        0xc common/built-in.o
 .bss           0x0000000000000000        0x0 common/built-in.o
 .bss.lastcommand.6323
                0x0000000000000000      0x100 common/built-in.o
 .bss.env_ptr   0x0000000000000000        0x4 common/built-in.o
 .bss.n_mmaps_max
                0x0000000000000000        0x4 common/built-in.o
 .bss.save_addr
                0x0000000000000000        0x4 common/built-in.o
 .bss.save_size
                0x0000000000000000        0x4 common/built-in.o
 .text          0x0000000000000000        0x0 drivers/built-in.o
 .text.rk_fb_pwr_disable
                0x0000000000000000       0x44 drivers/built-in.o
 .text.lcd_setcolreg
                0x0000000000000000        0x4 drivers/built-in.o
 .text.rk32_edp_lane_swap
                0x0000000000000000       0x18 drivers/built-in.o
 .text.rk32_edp_config_interrupt
                0x0000000000000000       0x30 drivers/built-in.o
 .text.rk32_edp_get_plug_in_status
                0x0000000000000000       0x18 drivers/built-in.o
 .text.rk32_edp_write_byte_to_dpcd
                0x0000000000000000       0x88 drivers/built-in.o
 .text.rk32_edp_write_bytes_to_dpcd
                0x0000000000000000      0x110 drivers/built-in.o
 .text.rk32_edp_read_bytes_from_dpcd
                0x0000000000000000      0x104 drivers/built-in.o
 .text.rk32_edp_select_i2c_device
                0x0000000000000000       0x54 drivers/built-in.o
 .text.rk32_edp_read_byte_from_i2c
                0x0000000000000000       0x90 drivers/built-in.o
 .text.rk32_edp_read_bytes_from_i2c
                0x0000000000000000      0x110 drivers/built-in.o
 .text.rk32_edp_get_link_bandwidth
                0x0000000000000000       0x10 drivers/built-in.o
 .text.rk32_edp_get_lane_count
                0x0000000000000000       0x10 drivers/built-in.o
 .text.rk32_edp_enable_enhanced_mode
                0x0000000000000000       0x20 drivers/built-in.o
 .text.rk32_edp_set_training_pattern
                0x0000000000000000       0x60 drivers/built-in.o
 .text.rk32_edp_set_lane0_pre_emphasis
                0x0000000000000000       0x10 drivers/built-in.o
 .text.rk32_edp_set_lane1_pre_emphasis
                0x0000000000000000       0x10 drivers/built-in.o
 .text.rk32_edp_set_lane2_pre_emphasis
                0x0000000000000000       0x10 drivers/built-in.o
 .text.rk32_edp_set_lane3_pre_emphasis
                0x0000000000000000       0x10 drivers/built-in.o
 .text.rk32_edp_set_lane0_link_training
                0x0000000000000000        0xc drivers/built-in.o
 .text.rk32_edp_set_lane1_link_training
                0x0000000000000000        0xc drivers/built-in.o
 .text.rk32_edp_set_lane2_link_training
                0x0000000000000000        0xc drivers/built-in.o
 .text.rk32_edp_set_lane3_link_training
                0x0000000000000000        0xc drivers/built-in.o
 .text.rk32_edp_get_lane0_link_training
                0x0000000000000000        0xc drivers/built-in.o
 .text.rk32_edp_get_lane1_link_training
                0x0000000000000000        0xc drivers/built-in.o
 .text.rk32_edp_get_lane2_link_training
                0x0000000000000000        0xc drivers/built-in.o
 .text.rk32_edp_get_lane3_link_training
                0x0000000000000000        0xc drivers/built-in.o
 .text.rk32_edp_enable_scrambling
                0x0000000000000000       0x18 drivers/built-in.o
 .text.rk32_edp_disable_scrambling
                0x0000000000000000       0x18 drivers/built-in.o
 .text.rk32_edp_get_irq_type
                0x0000000000000000       0x38 drivers/built-in.o
 .text.rk32_edp_clear_hotplug_interrupts
                0x0000000000000000       0x1c drivers/built-in.o
 .text.del_dsi_ops
                0x0000000000000000       0x4c drivers/built-in.o
 .text.dsi_power_up
                0x0000000000000000       0x44 drivers/built-in.o
 .text.dsi_set_regs
                0x0000000000000000       0x44 drivers/built-in.o
 .text.dsi_send_dcs_packet
                0x0000000000000000       0x44 drivers/built-in.o
 .text.dsi_read_dcs_packet
                0x0000000000000000       0x44 drivers/built-in.o
 .text.input_tstc
                0x0000000000000000       0x48 drivers/built-in.o
 .text.input_getc
                0x0000000000000000       0x5c drivers/built-in.o
 .text.input_send_keycodes
                0x0000000000000000      0x3a8 drivers/built-in.o
 .text.input_add_table
                0x0000000000000000       0x40 drivers/built-in.o
 .text.input_set_delays
                0x0000000000000000        0xc drivers/built-in.o
 .text.input_init
                0x0000000000000000       0x9c drivers/built-in.o
 .text.input_stdio_register
                0x0000000000000000       0x54 drivers/built-in.o
 .rodata.kbd_to_ansi364
                0x0000000000000000       0x20 drivers/built-in.o
 .rodata.kbd_plain_xlate
                0x0000000000000000       0x63 drivers/built-in.o
 .rodata.CSWTCH.26
                0x0000000000000000        0xd drivers/built-in.o
 .data          0x0000000000000000        0x0 drivers/built-in.o
 .data.kbd_ctrl_xlate
                0x0000000000000000       0x63 drivers/built-in.o
 .data.kbd_shift_xlate
                0x0000000000000000       0x63 drivers/built-in.o
 .bss           0x0000000000000000        0x0 drivers/built-in.o
 .text          0x0000000000000000        0x0 drivers/gpio/built-in.o
 .text.rk_gpio_gpio_to_irq
                0x0000000000000000       0x68 drivers/gpio/built-in.o
 .text.gpio_request
                0x0000000000000000        0x8 drivers/gpio/built-in.o
 .text.gpio_free
                0x0000000000000000        0x8 drivers/gpio/built-in.o
 .text.gpio_pull_updown
                0x0000000000000000       0xd8 drivers/gpio/built-in.o
 .text.gpio_drive_slector
                0x0000000000000000       0xf4 drivers/gpio/built-in.o
 .data          0x0000000000000000        0x0 drivers/gpio/built-in.o
 .bss           0x0000000000000000        0x0 drivers/gpio/built-in.o
 .text          0x0000000000000000        0x0 drivers/i2c/built-in.o
 .text.i2c_get_bus_num
                0x0000000000000000       0x10 drivers/i2c/built-in.o
 .text.i2c_get_bus_speed
                0x0000000000000000        0x8 drivers/i2c/built-in.o
 .data          0x0000000000000000        0x0 drivers/i2c/built-in.o
 .bss           0x0000000000000000        0x0 drivers/i2c/built-in.o
 .text          0x0000000000000000        0x0 drivers/power/built-in.o
 .text.pmic_set_output
                0x0000000000000000       0x5c drivers/power/built-in.o
 .text.get_rockchip_pmic_id
                0x0000000000000000       0x10 drivers/power/built-in.o
 .text.is_exist_battery
                0x0000000000000000       0x34 drivers/power/built-in.o
 .text.pmic_charger_setting
                0x0000000000000000       0x38 drivers/power/built-in.o
 .text.power_pmic_init
                0x0000000000000000        0x4 drivers/power/built-in.o
 .text.power_on_pmic
                0x0000000000000000        0x4 drivers/power/built-in.o
 .text.power_off_pmic
                0x0000000000000000        0x4 drivers/power/built-in.o
 .text.pmic_probe
                0x0000000000000000       0x38 drivers/power/built-in.o
 .data          0x0000000000000000        0x0 drivers/power/built-in.o
 .bss           0x0000000000000000        0x0 drivers/power/built-in.o
 .text          0x0000000000000000        0x0 drivers/power/charge/built-in.o
 .data          0x0000000000000000        0x0 drivers/power/charge/built-in.o
 .bss           0x0000000000000000        0x0 drivers/power/charge/built-in.o
 .text          0x0000000000000000        0x0 drivers/power/fuel_gauge/built-in.o
 .text.pmu_debug
                0x0000000000000000       0x28 drivers/power/fuel_gauge/built-in.o
 .text.pmu_i2c_set
                0x0000000000000000       0x58 drivers/power/fuel_gauge/built-in.o
 .text.write_pmu_reg
                0x0000000000000000       0x14 drivers/power/fuel_gauge/built-in.o
 .data          0x0000000000000000        0x0 drivers/power/fuel_gauge/built-in.o
 .bss           0x0000000000000000        0x0 drivers/power/fuel_gauge/built-in.o
 .text          0x0000000000000000        0x0 drivers/power/pmic/built-in.o
 .text.rk808_regulator_disable
                0x0000000000000000       0xf0 drivers/power/pmic/built-in.o
 .text.rk818_regulator_disable
                0x0000000000000000       0xf0 drivers/power/pmic/built-in.o
 .text.pmic_rk818_power_init
                0x0000000000000000       0x20 drivers/power/pmic/built-in.o
 .text.pmic_rk818_power_on
                0x0000000000000000       0x18 drivers/power/pmic/built-in.o
 .text.pmic_rk818_power_off
                0x0000000000000000       0x18 drivers/power/pmic/built-in.o
 .text.pmic_act8846_charger_setting
                0x0000000000000000       0x24 drivers/power/pmic/built-in.o
 .text.ricoh619_check_charge
                0x0000000000000000       0x48 drivers/power/pmic/built-in.o
 .text.ricoh619_poll_pwr_key_sta
                0x0000000000000000       0x68 drivers/power/pmic/built-in.o
 .rodata.__func__.7734
                0x0000000000000000       0x1d drivers/power/pmic/built-in.o
 .data          0x0000000000000000        0x0 drivers/power/pmic/built-in.o
 .bss           0x0000000000000000        0x0 drivers/power/pmic/built-in.o
 .bss.batt_status
                0x0000000000000000       0x1c drivers/power/pmic/built-in.o
 .text          0x0000000000000000        0x0 drivers/serial/built-in.o
 .text.serial_register
                0x0000000000000000       0x18 drivers/serial/built-in.o
 .text.serial_reinit_all
                0x0000000000000000       0x2c drivers/serial/built-in.o
 .text.rk_serial_initialize
                0x0000000000000000        0xc drivers/serial/built-in.o
 .data          0x0000000000000000        0x0 drivers/serial/built-in.o
 .bss           0x0000000000000000        0x0 drivers/serial/built-in.o
 .text          0x0000000000000000        0x0 drivers/spi/built-in.o
 .text.spi_set_wordlen
                0x0000000000000000       0x30 drivers/spi/built-in.o
 .text.spi_do_alloc_slave
                0x0000000000000000       0x4c drivers/spi/built-in.o
 .rodata.str1.1
                0x0000000000000000       0x19 drivers/spi/built-in.o
 .data          0x0000000000000000        0x0 drivers/spi/built-in.o
 .bss           0x0000000000000000        0x0 drivers/spi/built-in.o
 .comment       0x0000000000000000       0x10 drivers/spi/built-in.o
 .debug_aranges
                0x0000000000000000       0x28 drivers/spi/built-in.o
 .debug_info    0x0000000000000000      0x5cb drivers/spi/built-in.o
 .debug_abbrev  0x0000000000000000      0x1a7 drivers/spi/built-in.o
 .debug_line    0x0000000000000000      0x11c drivers/spi/built-in.o
 .debug_frame   0x0000000000000000       0x48 drivers/spi/built-in.o
 .debug_str     0x0000000000000000      0x34b drivers/spi/built-in.o
 .debug_loc     0x0000000000000000      0x14f drivers/spi/built-in.o
 .debug_ranges  0x0000000000000000       0x18 drivers/spi/built-in.o
 .ARM.attributes
                0x0000000000000000       0x2d drivers/spi/built-in.o
 .text          0x0000000000000000        0x0 drivers/usb/gadget/built-in.o
 .text.usbd_device_interface_instance
                0x0000000000000000       0x40 drivers/usb/gadget/built-in.o
 .text.usbd_device_alternate_instance
                0x0000000000000000       0x2c drivers/usb/gadget/built-in.o
 .text.usbd_device_interface_descriptor
                0x0000000000000000       0x3c drivers/usb/gadget/built-in.o
 .text.usbd_device_endpoint_descriptor_index
                0x0000000000000000       0x34 drivers/usb/gadget/built-in.o
 .text.usbd_device_endpoint_transfersize
                0x0000000000000000       0x34 drivers/usb/gadget/built-in.o
 .text.usbd_device_endpoint_descriptor
                0x0000000000000000       0x60 drivers/usb/gadget/built-in.o
 .text.usbd_dealloc_urb
                0x0000000000000000        0xc drivers/usb/gadget/built-in.o
 .text.udc_set_nak
                0x0000000000000000        0x4 drivers/usb/gadget/built-in.o
 .text.udc_unset_nak
                0x0000000000000000        0x4 drivers/usb/gadget/built-in.o
 .text.usbphy_tunning
                0x0000000000000000        0x4 drivers/usb/gadget/built-in.o
 .data          0x0000000000000000        0x0 drivers/usb/gadget/built-in.o
 .data.usbd_device_states
                0x0000000000000000       0x20 drivers/usb/gadget/built-in.o
 .data.usbd_device_descriptors
                0x0000000000000000       0x24 drivers/usb/gadget/built-in.o
 .data.usbd_device_status
                0x0000000000000000       0x10 drivers/usb/gadget/built-in.o
 .data.usbd_device_requests
                0x0000000000000000       0x34 drivers/usb/gadget/built-in.o
 .data.usbd_device_events
                0x0000000000000000       0x44 drivers/usb/gadget/built-in.o
 .bss           0x0000000000000000        0x0 drivers/usb/gadget/built-in.o
 .bss.registered_devices
                0x0000000000000000        0x4 drivers/usb/gadget/built-in.o
 .bss.registered_functions
                0x0000000000000000        0x4 drivers/usb/gadget/built-in.o
 .bss.usb_devices
                0x0000000000000000        0x4 drivers/usb/gadget/built-in.o
 .text          0x0000000000000000        0x0 fs/built-in.o
 .text.fs_probe_unsupported
                0x0000000000000000       0x18 fs/built-in.o
 .text.fs_ls_unsupported
                0x0000000000000000        0x8 fs/built-in.o
 .text.fs_exists_unsupported
                0x0000000000000000        0x8 fs/built-in.o
 .text.fs_size_unsupported
                0x0000000000000000        0x8 fs/built-in.o
 .text.fs_read_unsupported
                0x0000000000000000        0x8 fs/built-in.o
 .text.fs_write_unsupported
                0x0000000000000000        0x8 fs/built-in.o
 .text.fs_close_unsupported
                0x0000000000000000        0x4 fs/built-in.o
 .text.fs_close
                0x0000000000000000       0x14 fs/built-in.o
 .text.fs_set_blk_dev
                0x0000000000000000       0x18 fs/built-in.o
 .text.fs_ls    0x0000000000000000       0x28 fs/built-in.o
 .text.fs_exists
                0x0000000000000000       0x18 fs/built-in.o
 .text.fs_size  0x0000000000000000       0x18 fs/built-in.o
 .text.fs_read  0x0000000000000000       0x54 fs/built-in.o
 .text.fs_write
                0x0000000000000000       0x4c fs/built-in.o
 .text.do_size  0x0000000000000000       0x20 fs/built-in.o
 .text.do_load  0x0000000000000000       0x30 fs/built-in.o
 .text.do_ls    0x0000000000000000       0x30 fs/built-in.o
 .text.file_exists
                0x0000000000000000       0x14 fs/built-in.o
 .text.do_save  0x0000000000000000       0x24 fs/built-in.o
 .rodata.str1.1
                0x0000000000000000       0x61 fs/built-in.o
 .data          0x0000000000000000        0x0 fs/built-in.o
 .bss           0x0000000000000000        0x0 fs/built-in.o
 .bss.fs_type   0x0000000000000000        0x4 fs/built-in.o
 .bss.fs_dev_desc
                0x0000000000000000        0x4 fs/built-in.o
 .comment       0x0000000000000000       0x10 fs/built-in.o
 .debug_aranges
                0x0000000000000000       0xb0 fs/built-in.o
 .debug_info    0x0000000000000000     0x168c fs/built-in.o
 .debug_abbrev  0x0000000000000000      0x3e9 fs/built-in.o
 .debug_line    0x0000000000000000      0x30f fs/built-in.o
 .debug_frame   0x0000000000000000      0x178 fs/built-in.o
 .debug_str     0x0000000000000000      0x87b fs/built-in.o
 .debug_loc     0x0000000000000000      0x7a7 fs/built-in.o
 .debug_ranges  0x0000000000000000      0x1f0 fs/built-in.o
 .ARM.attributes
                0x0000000000000000       0x2d fs/built-in.o
 .text          0x0000000000000000        0x0 lib/built-in.o
 .text.crc7     0x0000000000000000       0x28 lib/built-in.o
 .text.crc8     0x0000000000000000       0x44 lib/built-in.o
 .text.cyg_crc16
                0x0000000000000000       0x44 lib/built-in.o
 .text.fdtdec_get_compatible
                0x0000000000000000       0x10 lib/built-in.o
 .text.fdtdec_get_uint64
                0x0000000000000000       0x40 lib/built-in.o
 .text.fdtdec_get_is_enabled
                0x0000000000000000       0x3c lib/built-in.o
 .text.fdtdec_lookup
                0x0000000000000000       0x48 lib/built-in.o
 .text.fdtdec_next_compatible_subnode
                0x0000000000000000       0x68 lib/built-in.o
 .text.fdtdec_next_alias
                0x0000000000000000       0x94 lib/built-in.o
 .text.fdtdec_add_aliases_for_id
                0x0000000000000000      0x28c lib/built-in.o
 .text.fdtdec_find_aliases_for_id
                0x0000000000000000       0x44 lib/built-in.o
 .text.fdtdec_get_alias_seq
                0x0000000000000000      0x118 lib/built-in.o
 .text.fdtdec_get_alias_node
                0x0000000000000000       0x4c lib/built-in.o
 .text.fdtdec_get_chosen_node
                0x0000000000000000       0x4c lib/built-in.o
 .text.fdtdec_prepare_fdt
                0x0000000000000000       0x44 lib/built-in.o
 .text.fdtdec_check_fdt
                0x0000000000000000       0x10 lib/built-in.o
 .text.fdtdec_lookup_phandle
                0x0000000000000000       0x34 lib/built-in.o
 .text.fdtdec_get_int_array_count
                0x0000000000000000       0x5c lib/built-in.o
 .text.fdtdec_locate_array
                0x0000000000000000       0x28 lib/built-in.o
 .text.fdtdec_get_bool
                0x0000000000000000       0x18 lib/built-in.o
 .text.fdtdec_get_gpio
                0x0000000000000000       0x28 lib/built-in.o
 .text.fdtdec_set_gpio
                0x0000000000000000       0x20 lib/built-in.o
 .text.fdtdec_setup_gpio
                0x0000000000000000       0x34 lib/built-in.o
 .text.fdtdec_get_byte_array
                0x0000000000000000       0x48 lib/built-in.o
 .text.fdtdec_locate_byte_array
                0x0000000000000000       0x24 lib/built-in.o
 .text.fdtdec_get_config_int
                0x0000000000000000       0x40 lib/built-in.o
 .text.fdtdec_get_config_bool
                0x0000000000000000       0x44 lib/built-in.o
 .text.fdtdec_get_config_string
                0x0000000000000000       0x3c lib/built-in.o
 .text.fdtdec_decode_region
                0x0000000000000000       0x50 lib/built-in.o
 .text.fdtdec_read_fmap_entry
                0x0000000000000000       0xdc lib/built-in.o
 .text.fdtdec_get_number
                0x0000000000000000       0x3c lib/built-in.o
 .text.fdt_get_resource
                0x0000000000000000       0xe0 lib/built-in.o
 .text.fdt_get_named_resource
                0x0000000000000000       0x40 lib/built-in.o
 .text.fdtdec_pci_get_bdf
                0x0000000000000000       0x38 lib/built-in.o
 .text.fdtdec_decode_memory_region
                0x0000000000000000      0x130 lib/built-in.o
 .text.lmb_dump_all
                0x0000000000000000        0x4 lib/built-in.o
 .text.lmb_is_reserved
                0x0000000000000000       0x50 lib/built-in.o
 .text.board_lmb_reserve
                0x0000000000000000        0x4 lib/built-in.o
 .text.arch_lmb_reserve
                0x0000000000000000        0x4 lib/built-in.o
 .text.ldiv     0x0000000000000000       0x50 lib/built-in.o
 .text.string_to_ip
                0x0000000000000000       0x60 lib/built-in.o
 .text.strcmp_compar
                0x0000000000000000        0xc lib/built-in.o
 .text.strmhz   0x0000000000000000       0x6c lib/built-in.o
 .text.merge    0x0000000000000000       0x64 lib/built-in.o
 .text.list_sort
                0x0000000000000000      0x1a4 lib/built-in.o
 .text.hmatch_r
                0x0000000000000000       0xa0 lib/built-in.o
 .text.print_buffer
                0x0000000000000000      0x1c0 lib/built-in.o
 .text.crc32_no_comp
                0x0000000000000000       0xd8 lib/built-in.o
 .text.crc32_wd_buf
                0x0000000000000000       0x3c lib/built-in.o
 .text.copy_from_user
                0x0000000000000000       0x10 lib/built-in.o
 .text.kmalloc  0x0000000000000000        0xc lib/built-in.o
 .text.kzalloc  0x0000000000000000       0x2c lib/built-in.o
 .text.vzalloc  0x0000000000000000        0x8 lib/built-in.o
 .text.get_mem  0x0000000000000000       0x1c lib/built-in.o
 .text.kmem_cache_alloc
                0x0000000000000000       0x10 lib/built-in.o
 .text.strncasecmp
                0x0000000000000000       0x84 lib/built-in.o
 .text.strcasecmp
                0x0000000000000000        0x8 lib/built-in.o
 .text.strrchr  0x0000000000000000       0x3c lib/built-in.o
 .text.strsep   0x0000000000000000       0x34 lib/built-in.o
 .text.strswab  0x0000000000000000       0x4c lib/built-in.o
 .text.bcopy    0x0000000000000000       0x24 lib/built-in.o
 .text.strlcpy  0x0000000000000000       0x50 lib/built-in.o
 .text.memscan  0x0000000000000000       0x2c lib/built-in.o
 .text.memchr_inv
                0x0000000000000000      0x124 lib/built-in.o
 .text.tick_to_time
                0x0000000000000000       0x60 lib/built-in.o
 .text.get_ticks
                0x0000000000000000       0x3c lib/built-in.o
 .text.timer_init
                0x0000000000000000        0x8 lib/built-in.o
 .text.get_timer
                0x0000000000000000       0x18 lib/built-in.o
 .text.timer_get_us
                0x0000000000000000       0x24 lib/built-in.o
 .text.__udelay
                0x0000000000000000       0x8c lib/built-in.o
 .text.ustrtoul
                0x0000000000000000       0x70 lib/built-in.o
 .text.ustrtoull
                0x0000000000000000       0x88 lib/built-in.o
 .text.trailing_strtoln
                0x0000000000000000       0x68 lib/built-in.o
 .text.trailing_strtol
                0x0000000000000000        0x8 lib/built-in.o
 .text.vsnprintf
                0x0000000000000000        0x4 lib/built-in.o
 .text.scnprintf
                0x0000000000000000       0x24 lib/built-in.o
 .text.__assert_fail
                0x0000000000000000       0x14 lib/built-in.o
 .text.print_grouped_ull
                0x0000000000000000       0x88 lib/built-in.o
 .rodata.crc7_syndrome_table
                0x0000000000000000      0x100 lib/built-in.o
 .rodata.crc16_tab
                0x0000000000000000      0x200 lib/built-in.o
 .data          0x0000000000000000        0x0 lib/built-in.o
 .data.cur      0x0000000000000000        0x4 lib/built-in.o
 .data.current  0x0000000000000000        0x4 lib/built-in.o
 .bss           0x0000000000000000        0x0 lib/built-in.o
 .text          0x0000000000000000        0x0 lib/libfdt/built-in.o
 .text.fdt_getprop_by_offset
                0x0000000000000000       0x48 lib/libfdt/built-in.o
 .text.fdt_get_alias
                0x0000000000000000       0x28 lib/libfdt/built-in.o
 .text.fdt_get_path
                0x0000000000000000      0x138 lib/libfdt/built-in.o
 .text.fdt_node_offset_by_prop_value
                0x0000000000000000       0x9c lib/libfdt/built-in.o
 .text.fdt_count_strings
                0x0000000000000000       0x58 lib/libfdt/built-in.o
 .text.fdt_find_string
                0x0000000000000000       0x8c lib/libfdt/built-in.o
 .text.fdt_get_string_index
                0x0000000000000000       0x60 lib/libfdt/built-in.o
 .text.fdt_get_string
                0x0000000000000000       0x14 lib/libfdt/built-in.o
 .text.fdt_set_name
                0x0000000000000000       0x8c lib/libfdt/built-in.o
 .text.fdt_appendprop
                0x0000000000000000       0xdc lib/libfdt/built-in.o
 .text.fdt_pack
                0x0000000000000000       0x5c lib/libfdt/built-in.o
 .text._fdt_sw_check_header
                0x0000000000000000       0x20 lib/libfdt/built-in.o
 .text._fdt_grab_space
                0x0000000000000000       0x58 lib/libfdt/built-in.o
 .text.fdt_create
                0x0000000000000000       0x64 lib/libfdt/built-in.o
 .text.fdt_resize
                0x0000000000000000       0xbc lib/libfdt/built-in.o
 .text.fdt_add_reservemap_entry
                0x0000000000000000       0x90 lib/libfdt/built-in.o
 .text.fdt_finish_reservemap
                0x0000000000000000       0x18 lib/libfdt/built-in.o
 .text.fdt_begin_node
                0x0000000000000000       0x68 lib/libfdt/built-in.o
 .text.fdt_end_node
                0x0000000000000000       0x38 lib/libfdt/built-in.o
 .text.fdt_property
                0x0000000000000000      0x110 lib/libfdt/built-in.o
 .text.fdt_finish
                0x0000000000000000      0x108 lib/libfdt/built-in.o
 .text.fdt_setprop_inplace
                0x0000000000000000       0x44 lib/libfdt/built-in.o
 .text.fdt_nop_property
                0x0000000000000000       0x3c lib/libfdt/built-in.o
 .text.fdt_nop_node
                0x0000000000000000       0x50 lib/libfdt/built-in.o
 .text.fdt_find_regions
                0x0000000000000000      0x3ac lib/libfdt/built-in.o
 .text.fdt_create_empty_tree
                0x0000000000000000       0x74 lib/libfdt/built-in.o
 .text.fdt_address_cells
                0x0000000000000000       0x4c lib/libfdt/built-in.o
 .text.fdt_size_cells
                0x0000000000000000       0x48 lib/libfdt/built-in.o
 .data          0x0000000000000000        0x0 lib/libfdt/built-in.o
 .bss           0x0000000000000000        0x0 lib/libfdt/built-in.o
 .text          0x0000000000000000        0x0 arch/arm/lib/eabi_compat.o
 .data          0x0000000000000000        0x0 arch/arm/lib/eabi_compat.o
 .bss           0x0000000000000000        0x0 arch/arm/lib/eabi_compat.o
 .text.raise    0x0000000000000000       0x1c arch/arm/lib/eabi_compat.o
 .text.__aeabi_unwind_cpp_pr1
                0x0000000000000000        0x4 arch/arm/lib/eabi_compat.o
 .text.__aeabi_memcpy
                0x0000000000000000        0x4 arch/arm/lib/eabi_compat.o
 .text.__aeabi_memset
                0x0000000000000000       0x10 arch/arm/lib/eabi_compat.o
 .rodata.str1.1
                0x0000000000000000       0x1b arch/arm/lib/eabi_compat.o
 .debug_info    0x0000000000000000      0x57c arch/arm/lib/eabi_compat.o
 .debug_abbrev  0x0000000000000000      0x1c7 arch/arm/lib/eabi_compat.o
 .debug_loc     0x0000000000000000      0x128 arch/arm/lib/eabi_compat.o
 .debug_aranges
                0x0000000000000000       0x40 arch/arm/lib/eabi_compat.o
 .debug_ranges  0x0000000000000000       0x30 arch/arm/lib/eabi_compat.o
 .debug_line    0x0000000000000000      0x13f arch/arm/lib/eabi_compat.o
 .debug_str     0x0000000000000000      0x333 arch/arm/lib/eabi_compat.o
 .comment       0x0000000000000000       0x10 arch/arm/lib/eabi_compat.o
 .ARM.attributes
                0x0000000000000000       0x2d arch/arm/lib/eabi_compat.o
 .debug_frame   0x0000000000000000       0x68 arch/arm/lib/eabi_compat.o
 .data          0x0000000000000000        0x0 /home/rk3288-sdk/prebuilts/gcc/linux-x86/arm/arm-eabi-4.7/bin/../lib/gcc/arm-eabi/4.7/libgcc.a(_udivsi3.o)
 .bss           0x0000000000000000        0x0 /home/rk3288-sdk/prebuilts/gcc/linux-x86/arm/arm-eabi-4.7/bin/../lib/gcc/arm-eabi/4.7/libgcc.a(_udivsi3.o)
 .data          0x0000000000000000        0x0 /home/rk3288-sdk/prebuilts/gcc/linux-x86/arm/arm-eabi-4.7/bin/../lib/gcc/arm-eabi/4.7/libgcc.a(_divsi3.o)
 .bss           0x0000000000000000        0x0 /home/rk3288-sdk/prebuilts/gcc/linux-x86/arm/arm-eabi-4.7/bin/../lib/gcc/arm-eabi/4.7/libgcc.a(_divsi3.o)
 .data          0x0000000000000000        0x0 /home/rk3288-sdk/prebuilts/gcc/linux-x86/arm/arm-eabi-4.7/bin/../lib/gcc/arm-eabi/4.7/libgcc.a(_dvmd_tls.o)
 .bss           0x0000000000000000        0x0 /home/rk3288-sdk/prebuilts/gcc/linux-x86/arm/arm-eabi-4.7/bin/../lib/gcc/arm-eabi/4.7/libgcc.a(_dvmd_tls.o)
 .data          0x0000000000000000        0x0 /home/rk3288-sdk/prebuilts/gcc/linux-x86/arm/arm-eabi-4.7/bin/../lib/gcc/arm-eabi/4.7/libgcc.a(_lshrdi3.o)
 .bss           0x0000000000000000        0x0 /home/rk3288-sdk/prebuilts/gcc/linux-x86/arm/arm-eabi-4.7/bin/../lib/gcc/arm-eabi/4.7/libgcc.a(_lshrdi3.o)
 .data          0x0000000000000000        0x0 /home/rk3288-sdk/prebuilts/gcc/linux-x86/arm/arm-eabi-4.7/bin/../lib/gcc/arm-eabi/4.7/libgcc.a(_ashldi3.o)
 .bss           0x0000000000000000        0x0 /home/rk3288-sdk/prebuilts/gcc/linux-x86/arm/arm-eabi-4.7/bin/../lib/gcc/arm-eabi/4.7/libgcc.a(_ashldi3.o)
 .data          0x0000000000000000        0x0 /home/rk3288-sdk/prebuilts/gcc/linux-x86/arm/arm-eabi-4.7/bin/../lib/gcc/arm-eabi/4.7/libgcc.a(_aeabi_uldivmod.o)
 .bss           0x0000000000000000        0x0 /home/rk3288-sdk/prebuilts/gcc/linux-x86/arm/arm-eabi-4.7/bin/../lib/gcc/arm-eabi/4.7/libgcc.a(_aeabi_uldivmod.o)
 .data          0x0000000000000000        0x0 /home/rk3288-sdk/prebuilts/gcc/linux-x86/arm/arm-eabi-4.7/bin/../lib/gcc/arm-eabi/4.7/libgcc.a(bpabi.o)
 .bss           0x0000000000000000        0x0 /home/rk3288-sdk/prebuilts/gcc/linux-x86/arm/arm-eabi-4.7/bin/../lib/gcc/arm-eabi/4.7/libgcc.a(bpabi.o)
 .data          0x0000000000000000        0x0 /home/rk3288-sdk/prebuilts/gcc/linux-x86/arm/arm-eabi-4.7/bin/../lib/gcc/arm-eabi/4.7/libgcc.a(_divdi3.o)
 .bss           0x0000000000000000        0x0 /home/rk3288-sdk/prebuilts/gcc/linux-x86/arm/arm-eabi-4.7/bin/../lib/gcc/arm-eabi/4.7/libgcc.a(_divdi3.o)
 .ARM.extab     0x0000000000000000        0x0 /home/rk3288-sdk/prebuilts/gcc/linux-x86/arm/arm-eabi-4.7/bin/../lib/gcc/arm-eabi/4.7/libgcc.a(_divdi3.o)
 .data          0x0000000000000000        0x0 /home/rk3288-sdk/prebuilts/gcc/linux-x86/arm/arm-eabi-4.7/bin/../lib/gcc/arm-eabi/4.7/libgcc.a(_udivdi3.o)
 .bss           0x0000000000000000        0x0 /home/rk3288-sdk/prebuilts/gcc/linux-x86/arm/arm-eabi-4.7/bin/../lib/gcc/arm-eabi/4.7/libgcc.a(_udivdi3.o)
 .ARM.extab     0x0000000000000000        0x0 /home/rk3288-sdk/prebuilts/gcc/linux-x86/arm/arm-eabi-4.7/bin/../lib/gcc/arm-eabi/4.7/libgcc.a(_udivdi3.o)

Memory Configuration

Name             Origin             Length             Attributes
*default*        0x0000000000000000 0xffffffffffffffff

Linker script and memory map

Address of section .text set to 0x0
                0x0000000000000000                . = 0x0
                0x0000000000000000                . = ALIGN (0x4)

.text           0x0000000000000000    0x2b458
 *(.__image_copy_start)
 .__image_copy_start
                0x0000000000000000        0x0 arch/arm/lib/built-in.o
                0x0000000000000000                __image_copy_start
 *(.vectors)
 .vectors       0x0000000000000000      0x4e0 arch/arm/lib/built-in.o
                0x0000000000000000                _start
                0x0000000000000008                RSA_KEY_TAG
                0x000000000000000c                RSA_KEY_LENGTH
                0x0000000000000010                RSA_KEY_DATA
                0x0000000000000208                LoaderTagCheck
                0x0000000000000220                _vector
                0x0000000000000240                _undefined_instruction
                0x0000000000000244                _software_interrupt
                0x0000000000000248                _prefetch_abort
                0x000000000000024c                _data_abort
                0x0000000000000250                _not_used
                0x0000000000000254                _irq
                0x0000000000000258                _fiq
                0x0000000000000260                IRQ_STACK_START_IN
                0x0000000000000264                IRQ_STACK_START
                0x0000000000000268                FIQ_STACK_START
 arch/arm/cpu/armv7/start.o(.text*)
 .text          0x00000000000004e0       0xd4 arch/arm/cpu/armv7/start.o
                0x00000000000004e0                reset
                0x0000000000000538                c_runtime_cpu_setup
                0x0000000000000550                save_boot_params
                0x0000000000000554                cpu_init_cp15
                0x00000000000005a4                cpu_init_crit
 *(.text*)
 .text.v7_maint_dcache_all
                0x00000000000005b4       0xd0 arch/arm/cpu/armv7/built-in.o
 .text.v7_dcache_inval_range
                0x0000000000000684       0x80 arch/arm/cpu/armv7/built-in.o
 .text.invalidate_icache_all
                0x0000000000000704       0x18 arch/arm/cpu/armv7/built-in.o
                0x0000000000000704                invalidate_icache_all
 .text.v7_outer_cache_enable
                0x000000000000071c        0x4 arch/arm/cpu/armv7/built-in.o
                0x000000000000071c                v7_outer_cache_enable
 .text.v7_outer_cache_disable
                0x0000000000000720        0x4 arch/arm/cpu/armv7/built-in.o
                0x0000000000000720                v7_outer_cache_disable
 .text.v7_outer_cache_flush_all
                0x0000000000000724        0x4 arch/arm/cpu/armv7/built-in.o
                0x0000000000000724                v7_outer_cache_flush_all
 .text.flush_dcache_all
                0x0000000000000728       0x14 arch/arm/cpu/armv7/built-in.o
                0x0000000000000728                flush_dcache_all
 .text.v7_outer_cache_inval_all
                0x000000000000073c        0x4 arch/arm/cpu/armv7/built-in.o
                0x000000000000073c                v7_outer_cache_inval_all
 .text.invalidate_dcache_all
                0x0000000000000740       0x14 arch/arm/cpu/armv7/built-in.o
                0x0000000000000740                invalidate_dcache_all
 .text.arm_init_before_mmu
                0x0000000000000754       0x28 arch/arm/cpu/armv7/built-in.o
                0x0000000000000754                arm_init_before_mmu
 .text.v7_outer_cache_flush_range
                0x000000000000077c        0x4 arch/arm/cpu/armv7/built-in.o
                0x000000000000077c                v7_outer_cache_flush_range
 .text.flush_dcache_range
                0x0000000000000780       0x3c arch/arm/cpu/armv7/built-in.o
                0x0000000000000780                flush_dcache_range
 .text.flush_cache
                0x00000000000007bc        0x8 arch/arm/cpu/armv7/built-in.o
                0x00000000000007bc                flush_cache
 .text.v7_outer_cache_inval_range
                0x00000000000007c4        0x4 arch/arm/cpu/armv7/built-in.o
                0x00000000000007c4                v7_outer_cache_inval_range
 .text.invalidate_dcache_range
                0x00000000000007c8       0x3c arch/arm/cpu/armv7/built-in.o
                0x00000000000007c8                invalidate_dcache_range
 .text.cpu_cache_initialization
                0x0000000000000804        0x4 arch/arm/cpu/armv7/built-in.o
                0x0000000000000804                cpu_cache_initialization
 .text.cleanup_before_linux
                0x0000000000000808       0x28 arch/arm/cpu/armv7/built-in.o
                0x0000000000000808                cleanup_before_linux
 *fill*         0x0000000000000830       0x10 
 .text          0x0000000000000840       0x20 arch/arm/cpu/armv7/rk32xx/built-in.o
                0x0000000000000840                lowlevel_init
 .text.enable_caches
                0x0000000000000860        0x4 arch/arm/cpu/armv7/rk32xx/built-in.o
                0x0000000000000860                enable_caches
 .text.rk_get_chiptype
                0x0000000000000864      0x180 arch/arm/cpu/armv7/rk32xx/built-in.o
                0x0000000000000864                rk_get_chiptype
 .text.arch_cpu_init
                0x00000000000009e4       0x3c arch/arm/cpu/armv7/rk32xx/built-in.o
                0x00000000000009e4                arch_cpu_init
 .text.print_cpuinfo
                0x0000000000000a20       0x44 arch/arm/cpu/armv7/rk32xx/built-in.o
                0x0000000000000a20                print_cpuinfo
 .text.reset_timer_masked
                0x0000000000000a64       0x1c arch/arm/cpu/armv7/rk32xx/built-in.o
                0x0000000000000a64                reset_timer_masked
 .text.timer_init
                0x0000000000000a80       0x28 arch/arm/cpu/armv7/rk32xx/built-in.o
                0x0000000000000a80                timer_init
 .text.__udelay
                0x0000000000000aa8       0x88 arch/arm/cpu/armv7/rk32xx/built-in.o
                0x0000000000000aa8                __udelay
 .text.get_timer_masked
                0x0000000000000b30       0x7c arch/arm/cpu/armv7/rk32xx/built-in.o
                0x0000000000000b30                get_timer_masked
 .text.get_timer
                0x0000000000000bac       0x20 arch/arm/cpu/armv7/rk32xx/built-in.o
                0x0000000000000bac                get_timer
 .text.get_ticks
                0x0000000000000bcc       0x10 arch/arm/cpu/armv7/rk32xx/built-in.o
                0x0000000000000bcc                get_ticks
 .text.clk_loop_delayus
                0x0000000000000bdc       0x3c arch/arm/cpu/armv7/rk32xx/built-in.o
 .text.rkclk_pll_wait_lock
                0x0000000000000c18       0x64 arch/arm/cpu/armv7/rk32xx/built-in.o
 .text.rkclk_pll_set_rate
                0x0000000000000c7c      0x164 arch/arm/cpu/armv7/rk32xx/built-in.o
 .text.rkclk_lcdc_aclk_config
                0x0000000000000de0       0x7c arch/arm/cpu/armv7/rk32xx/built-in.o
 .text.rkclk_pll_get_rate
                0x0000000000000e5c       0xa4 arch/arm/cpu/armv7/rk32xx/built-in.o
 .text.rkclk_apll_cb
                0x0000000000000f00       0x9c arch/arm/cpu/armv7/rk32xx/built-in.o
 .text.rkclk_gpll_cb
                0x0000000000000f9c       0xd8 arch/arm/cpu/armv7/rk32xx/built-in.o
 .text.rkclk_set_pll
                0x0000000000001074       0x40 arch/arm/cpu/armv7/rk32xx/built-in.o
                0x0000000000001074                rkclk_set_pll
 .text.rkclk_get_pll
                0x00000000000010b4      0x1a8 arch/arm/cpu/armv7/rk32xx/built-in.o
                0x00000000000010b4                rkclk_get_pll
 .text.rkclk_dump_pll
                0x000000000000125c       0x6c arch/arm/cpu/armv7/rk32xx/built-in.o
                0x000000000000125c                rkclk_dump_pll
 .text.rkclk_set_cpll_rate
                0x00000000000012c8      0x228 arch/arm/cpu/armv7/rk32xx/built-in.o
                0x00000000000012c8                rkclk_set_cpll_rate
 .text.rkclk_lcdc_clk_set
                0x00000000000014f0      0x1b8 arch/arm/cpu/armv7/rk32xx/built-in.o
                0x00000000000014f0                rkclk_lcdc_clk_set
 .text.rkclk_set_mmc_clk_src
                0x00000000000016a8       0x50 arch/arm/cpu/armv7/rk32xx/built-in.o
                0x00000000000016a8                rkclk_set_mmc_clk_src
 .text.rkclk_get_mmc_clk
                0x00000000000016f8       0x7c arch/arm/cpu/armv7/rk32xx/built-in.o
                0x00000000000016f8                rkclk_get_mmc_clk
 .text.rkclk_set_mmc_clk_div
                0x0000000000001774       0x64 arch/arm/cpu/armv7/rk32xx/built-in.o
                0x0000000000001774                rkclk_set_mmc_clk_div
 .text.rkclk_disable_mmc_tuning
                0x00000000000017d8       0x40 arch/arm/cpu/armv7/rk32xx/built-in.o
                0x00000000000017d8                rkclk_disable_mmc_tuning
 .text.rkclk_get_pwm_clk
                0x0000000000001818        0x8 arch/arm/cpu/armv7/rk32xx/built-in.o
                0x0000000000001818                rkclk_get_pwm_clk
 .text.rkclk_get_i2c_clk
                0x0000000000001820       0x10 arch/arm/cpu/armv7/rk32xx/built-in.o
                0x0000000000001820                rkclk_get_i2c_clk
 .text.rkclk_set_crypto_clk
                0x0000000000001830       0x3c arch/arm/cpu/armv7/rk32xx/built-in.o
                0x0000000000001830                rkclk_set_crypto_clk
 .text.gic_handler_enable
                0x000000000000186c       0xb4 arch/arm/cpu/armv7/rk32xx/built-in.o
 .text.gpio_irq_handler
                0x0000000000001920       0xf8 arch/arm/cpu/armv7/rk32xx/built-in.o
 .text.gpio_irq_enable
                0x0000000000001a18       0x4c arch/arm/cpu/armv7/rk32xx/built-in.o
 .text.irq_handler_enable
                0x0000000000001a64       0x30 arch/arm/cpu/armv7/rk32xx/built-in.o
                0x0000000000001a64                irq_handler_enable
 .text.irq_install_handler
                0x0000000000001a94       0x24 arch/arm/cpu/armv7/rk32xx/built-in.o
                0x0000000000001a94                irq_install_handler
 .text.do_irq   0x0000000000001ab8       0x48 arch/arm/cpu/armv7/rk32xx/built-in.o
                0x0000000000001ab8                do_irq
 .text.arch_interrupt_init
                0x0000000000001b00      0x110 arch/arm/cpu/armv7/rk32xx/built-in.o
                0x0000000000001b00                arch_interrupt_init
 .text.dram_init
                0x0000000000001c10       0x94 arch/arm/cpu/armv7/rk32xx/built-in.o
                0x0000000000001c10                dram_init
 .text.dram_init_banksize
                0x0000000000001ca4      0x100 arch/arm/cpu/armv7/rk32xx/built-in.o
                0x0000000000001ca4                dram_init_banksize
 .text.rk_iomux_sdcard_save
                0x0000000000001da4       0x28 arch/arm/cpu/armv7/rk32xx/built-in.o
                0x0000000000001da4                rk_iomux_sdcard_save
 .text.rk_iomux_sdcard_restore
                0x0000000000001dcc       0x24 arch/arm/cpu/armv7/rk32xx/built-in.o
                0x0000000000001dcc                rk_iomux_sdcard_restore
 .text.rk_iomux_config
                0x0000000000001df0      0x2e4 arch/arm/cpu/armv7/rk32xx/built-in.o
                0x0000000000001df0                rk_iomux_config
 .text.rk_module_deinit
                0x00000000000020d4       0x34 arch/arm/cpu/armv7/rk32xx/built-in.o
                0x00000000000020d4                rk_module_deinit
 .text.reset_cpu
                0x0000000000002108       0x40 arch/arm/cpu/armv7/rk32xx/built-in.o
                0x0000000000002108                reset_cpu
 .text.rk_pwm_config
                0x0000000000002148      0x324 arch/arm/cpu/armv7/rk32xx/built-in.o
                0x0000000000002148                rk_pwm_config
 .text          0x000000000000246c       0xfc arch/arm/lib/built-in.o
                0x000000000000246c                _main
                0x0000000000002504                relocate_code
 .text.arch_fixup_fdt
                0x0000000000002568      0x120 arch/arm/lib/built-in.o
                0x0000000000002568                arch_fixup_fdt
 .text.boot_jump_linux
                0x0000000000002688       0xb8 arch/arm/lib/built-in.o
 .text.arch_lmb_reserve
                0x0000000000002740       0x24 arch/arm/lib/built-in.o
                0x0000000000002740                arch_lmb_reserve
 .text.setup_board_tags
                0x0000000000002764        0x4 arch/arm/lib/built-in.o
                0x0000000000002764                setup_board_tags
 .text.boot_prep_linux
                0x0000000000002768      0x17c arch/arm/lib/built-in.o
 .text.do_bootm_linux
                0x00000000000028e4       0x60 arch/arm/lib/built-in.o
                0x00000000000028e4                do_bootm_linux
 .text.arch_reserve_stacks
                0x0000000000002944       0x34 arch/arm/lib/built-in.o
                0x0000000000002944                arch_reserve_stacks
 .text.interrupt_init
                0x0000000000002978       0x6c arch/arm/lib/built-in.o
                0x0000000000002978                interrupt_init
 .text.enable_interrupts
                0x00000000000029e4       0x10 arch/arm/lib/built-in.o
                0x00000000000029e4                enable_interrupts
 .text.disable_interrupts
                0x00000000000029f4       0x18 arch/arm/lib/built-in.o
                0x00000000000029f4                disable_interrupts
 .text.bad_mode
                0x0000000000002a0c       0x10 arch/arm/lib/built-in.o
                0x0000000000002a0c                bad_mode
 .text.show_regs
                0x0000000000002a1c      0x13c arch/arm/lib/built-in.o
                0x0000000000002a1c                show_regs
 .text.do_undefined_instruction
                0x0000000000002b58       0x20 arch/arm/lib/built-in.o
                0x0000000000002b58                do_undefined_instruction
 .text.do_software_interrupt
                0x0000000000002b78       0x20 arch/arm/lib/built-in.o
                0x0000000000002b78                do_software_interrupt
 .text.do_prefetch_abort
                0x0000000000002b98       0x20 arch/arm/lib/built-in.o
                0x0000000000002b98                do_prefetch_abort
 .text.do_data_abort
                0x0000000000002bb8       0x20 arch/arm/lib/built-in.o
                0x0000000000002bb8                do_data_abort
 .text.do_not_used
                0x0000000000002bd8       0x20 arch/arm/lib/built-in.o
                0x0000000000002bd8                do_not_used
 .text.do_fiq   0x0000000000002bf8       0x20 arch/arm/lib/built-in.o
                0x0000000000002bf8                do_fiq
 .text.reset_misc
                0x0000000000002c18        0x4 arch/arm/lib/built-in.o
                0x0000000000002c18                reset_misc
 .text.do_reset
                0x0000000000002c1c       0x30 arch/arm/lib/built-in.o
                0x0000000000002c1c                do_reset
 .text.cp_delay
                0x0000000000002c4c       0x30 arch/arm/lib/built-in.o
 .text.arm_init_domains
                0x0000000000002c7c        0x4 arch/arm/lib/built-in.o
                0x0000000000002c7c                arm_init_domains
 .text.set_section_dcache
                0x0000000000002c80       0x14 arch/arm/lib/built-in.o
                0x0000000000002c80                set_section_dcache
 .text.dram_bank_mmu_setup
                0x0000000000002c94       0x4c arch/arm/lib/built-in.o
                0x0000000000002c94                dram_bank_mmu_setup
 .text.icache_disable
                0x0000000000002ce0       0x1c arch/arm/lib/built-in.o
                0x0000000000002ce0                icache_disable
 .text.dcache_enable
                0x0000000000002cfc       0x6c arch/arm/lib/built-in.o
                0x0000000000002cfc                dcache_enable
 .text.dcache_disable
                0x0000000000002d68       0x28 arch/arm/lib/built-in.o
                0x0000000000002d68                dcache_disable
 .text.CRC_32CheckBuffer
                0x0000000000002d90       0x54 board/rockchip/common/built-in.o
                0x0000000000002d90                CRC_32CheckBuffer
 .text.dmult    0x0000000000002de4       0x68 board/rockchip/common/built-in.o
 .text.NN_Digits.part.2
                0x0000000000002e4c       0x2c board/rockchip/common/built-in.o
 .text.NN_Cmp   0x0000000000002e78       0x50 board/rockchip/common/built-in.o
                0x0000000000002e78                NN_Cmp
 .text.NN_Assign
                0x0000000000002ec8       0x24 board/rockchip/common/built-in.o
                0x0000000000002ec8                NN_Assign
 .text.NN_Digits
                0x0000000000002eec       0x14 board/rockchip/common/built-in.o
                0x0000000000002eec                NN_Digits
 .text.NN_AssignZero
                0x0000000000002f00       0x1c board/rockchip/common/built-in.o
                0x0000000000002f00                NN_AssignZero
 .text.NN_Sub   0x0000000000002f1c       0x6c board/rockchip/common/built-in.o
                0x0000000000002f1c                NN_Sub
 .text.NN_Mult  0x0000000000002f88      0x110 board/rockchip/common/built-in.o
                0x0000000000002f88                NN_Mult
 .text.NN_LShift
                0x0000000000003098       0x54 board/rockchip/common/built-in.o
                0x0000000000003098                NN_LShift
 .text.NN_RShift
                0x00000000000030ec       0x58 board/rockchip/common/built-in.o
                0x00000000000030ec                NN_RShift
 .text.NN_Div   0x0000000000003144      0x38c board/rockchip/common/built-in.o
                0x0000000000003144                NN_Div
 .text.NN_Mod   0x00000000000034d0       0x3c board/rockchip/common/built-in.o
                0x00000000000034d0                NN_Mod
 .text.NN_ModMult
                0x000000000000350c       0x40 board/rockchip/common/built-in.o
                0x000000000000350c                NN_ModMult
 .text.NN_ModExp
                0x000000000000354c      0x160 board/rockchip/common/built-in.o
                0x000000000000354c                NN_ModExp
 .text.NN_Decode
                0x00000000000036ac       0x80 board/rockchip/common/built-in.o
                0x00000000000036ac                NN_Decode
 .text.NN_Encode
                0x000000000000372c       0x7c board/rockchip/common/built-in.o
                0x000000000000372c                NN_Encode
 .text.rsapublicfunc.constprop.5
                0x00000000000037a8       0xf8 board/rockchip/common/built-in.o
 .text.rsaDecodeHash
                0x00000000000038a0       0x64 board/rockchip/common/built-in.o
                0x00000000000038a0                rsaDecodeHash
 .text.rsaCheckMD5
                0x0000000000003904       0x80 board/rockchip/common/built-in.o
                0x0000000000003904                rsaCheckMD5
 .text.P_RC4    0x0000000000003984      0x11c board/rockchip/common/built-in.o
                0x0000000000003984                P_RC4
 .text.ftl_memset
                0x0000000000003aa0        0x4 board/rockchip/common/built-in.o
                0x0000000000003aa0                ftl_memset
 .text.ftl_memcpy
                0x0000000000003aa4       0x4c board/rockchip/common/built-in.o
                0x0000000000003aa4                ftl_memcpy
 .text.ftl_memcmp
                0x0000000000003af0        0x4 board/rockchip/common/built-in.o
                0x0000000000003af0                ftl_memcmp
 .text.DRVDelayUs
                0x0000000000003af4        0x4 board/rockchip/common/built-in.o
                0x0000000000003af4                DRVDelayUs
 .text.CacheFlushDRegion
                0x0000000000003af8        0x4 board/rockchip/common/built-in.o
                0x0000000000003af8                CacheFlushDRegion
 .text.CacheInvalidateDRegion
                0x0000000000003afc        0x8 board/rockchip/common/built-in.o
                0x0000000000003afc                CacheInvalidateDRegion
 .text.IReadLoaderFlag
                0x0000000000003b04       0x10 board/rockchip/common/built-in.o
                0x0000000000003b04                IReadLoaderFlag
 .text.ISetLoaderFlag
                0x0000000000003b14       0x10 board/rockchip/common/built-in.o
                0x0000000000003b14                ISetLoaderFlag
 .text.GetMmcCLK
                0x0000000000003b24       0x28 board/rockchip/common/built-in.o
                0x0000000000003b24                GetMmcCLK
 .text.SDCReset
                0x0000000000003b4c       0x78 board/rockchip/common/built-in.o
                0x0000000000003b4c                SDCReset
 .text.SCUSelSDClk
                0x0000000000003bc4        0x4 board/rockchip/common/built-in.o
                0x0000000000003bc4                SCUSelSDClk
 .text.sdmmcGpioInit
                0x0000000000003bc8       0x1c board/rockchip/common/built-in.o
                0x0000000000003bc8                sdmmcGpioInit
 .text.FW_NandDeInit
                0x0000000000003be4       0x28 board/rockchip/common/built-in.o
                0x0000000000003be4                FW_NandDeInit
 .text.rkplat_uart2UsbEn
                0x0000000000003c0c       0x48 board/rockchip/common/built-in.o
                0x0000000000003c0c                rkplat_uart2UsbEn
 .text.ParseAtoi
                0x0000000000003c54       0xa0 board/rockchip/common/built-in.o
 .text.find_mtd_part
                0x0000000000003cf4       0x4c board/rockchip/common/built-in.o
 .text.memparse
                0x0000000000003d40       0x68 board/rockchip/common/built-in.o
 .text.get_part
                0x0000000000003da8      0x1c4 board/rockchip/common/built-in.o
 .text.CheckParam
                0x0000000000003f6c       0x80 board/rockchip/common/built-in.o
                0x0000000000003f6c                CheckParam
 .text.GetParam
                0x0000000000003fec       0x8c board/rockchip/common/built-in.o
                0x0000000000003fec                GetParam
 .text.ParseParam
                0x0000000000004078      0x6d4 board/rockchip/common/built-in.o
                0x0000000000004078                ParseParam
 .text.get_disk_partition
                0x000000000000474c       0x54 board/rockchip/common/built-in.o
                0x000000000000474c                get_disk_partition
 .text.load_disk_partitions
                0x00000000000047a0       0xa0 board/rockchip/common/built-in.o
                0x00000000000047a0                load_disk_partitions
 .text.FindIDBlock.constprop.3
                0x0000000000004840      0x128 board/rockchip/common/built-in.o
 .text.rkidb_update_loader
                0x0000000000004968      0x99c board/rockchip/common/built-in.o
                0x0000000000004968                rkidb_update_loader
 .text.rkidb_setup_space
                0x0000000000005304       0x58 board/rockchip/common/built-in.o
                0x0000000000005304                rkidb_setup_space
 .text.rkidb_get_idblk_data
                0x000000000000535c       0x2c board/rockchip/common/built-in.o
                0x000000000000535c                rkidb_get_idblk_data
 .text.rkidb_get_bootloader_ver
                0x0000000000005388       0x98 board/rockchip/common/built-in.o
                0x0000000000005388                rkidb_get_bootloader_ver
 .text.rkidb_get_sn
                0x0000000000005420       0x68 board/rockchip/common/built-in.o
                0x0000000000005420                rkidb_get_sn
 .text.rkloader_CopyFlash2Memory
                0x0000000000005488       0x8c board/rockchip/common/built-in.o
                0x0000000000005488                rkloader_CopyFlash2Memory
 .text.rkloader_CopyMemory2Flash
                0x0000000000005514       0x64 board/rockchip/common/built-in.o
                0x0000000000005514                rkloader_CopyMemory2Flash
 .text.rkloader_change_cmd_for_recovery
                0x0000000000005578      0x114 board/rockchip/common/built-in.o
                0x0000000000005578                rkloader_change_cmd_for_recovery
 .text.rkloader_run_misc_cmd
                0x000000000000568c      0x24c board/rockchip/common/built-in.o
                0x000000000000568c                rkloader_run_misc_cmd
 .text.rkloader_fixInitrd
                0x00000000000058d8       0xc0 board/rockchip/common/built-in.o
                0x00000000000058d8                rkloader_fixInitrd
 .text.rkloader_set_bootloader_msg
                0x0000000000005998       0x64 board/rockchip/common/built-in.o
                0x0000000000005998                rkloader_set_bootloader_msg
 .text.rkimg_handleDirectDownload
                0x00000000000059fc       0xa0 board/rockchip/common/built-in.o
 .text.rkimg_load_image
                0x0000000000005a9c       0xac board/rockchip/common/built-in.o
 .text.rkimg_noBuffer
                0x0000000000005b48       0x34 board/rockchip/common/built-in.o
 .text.rkimg_handleSparseDownload
                0x0000000000005b7c      0x1cc board/rockchip/common/built-in.o
 .text.rkimg_ImageDownload.part.1
                0x0000000000005d48       0x54 board/rockchip/common/built-in.o
 .text.rkimage_load_image
                0x0000000000005d9c       0x78 board/rockchip/common/built-in.o
                0x0000000000005d9c                rkimage_load_image
 .text.rkimage_partition_erase
                0x0000000000005e14       0x1c board/rockchip/common/built-in.o
                0x0000000000005e14                rkimage_partition_erase
 .text.rkimage_store_image
                0x0000000000005e30      0x7c4 board/rockchip/common/built-in.o
                0x0000000000005e30                rkimage_store_image
 .text.rkimage_handleDownload
                0x00000000000065f4      0x1d8 board/rockchip/common/built-in.o
                0x00000000000065f4                rkimage_handleDownload
 .text.rkimage_load_fdt
                0x00000000000067cc      0x180 board/rockchip/common/built-in.o
                0x00000000000067cc                rkimage_load_fdt
 .text.rkimage_load_fdt_ram
                0x000000000000694c       0x94 board/rockchip/common/built-in.o
                0x000000000000694c                rkimage_load_fdt_ram
 .text.rkimage_prepare_fdt
                0x00000000000069e0       0x94 board/rockchip/common/built-in.o
                0x00000000000069e0                rkimage_prepare_fdt
 .text.GetPortState
                0x0000000000006a74       0xc4 board/rockchip/common/built-in.o
 .text.checkKey
                0x0000000000006b38       0x88 board/rockchip/common/built-in.o
                0x0000000000006b38                checkKey
 .text.key_init
                0x0000000000006bc0      0x1dc board/rockchip/common/built-in.o
                0x0000000000006bc0                key_init
 .text.powerOn  0x0000000000006d9c       0x20 board/rockchip/common/built-in.o
                0x0000000000006d9c                powerOn
 .text.board_fbt_request_start_fastboot
                0x0000000000006dbc       0x54 board/rockchip/common/built-in.o
 .text.backupboot_to_back
                0x0000000000006e10       0x60 board/rockchip/common/built-in.o
                0x0000000000006e10                backupboot_to_back
 .text.backfs   0x0000000000006e70      0x10c board/rockchip/common/built-in.o
                0x0000000000006e70                backfs
 .text.read_flag_of_backfs
                0x0000000000006f7c       0x68 board/rockchip/common/built-in.o
                0x0000000000006f7c                read_flag_of_backfs
 .text.read_flag_of_back
                0x0000000000006fe4       0x68 board/rockchip/common/built-in.o
                0x0000000000006fe4                read_flag_of_back
 .text.write_flag_of_back
                0x000000000000704c       0x88 board/rockchip/common/built-in.o
                0x000000000000704c                write_flag_of_back
 .text.write_flag_of_backfs
                0x00000000000070d4       0x8c board/rockchip/common/built-in.o
                0x00000000000070d4                write_flag_of_backfs
 .text.board_fbt_run_recovery
                0x0000000000007160       0x98 board/rockchip/common/built-in.o
 .text.board_fbt_set_reboot_type
                0x00000000000071f8       0x6c board/rockchip/common/built-in.o
                0x00000000000071f8                board_fbt_set_reboot_type
 .text.board_fbt_get_reboot_type
                0x0000000000007264       0xf0 board/rockchip/common/built-in.o
                0x0000000000007264                board_fbt_get_reboot_type
 .text.board_fbt_key_pressed
                0x0000000000007354       0xd0 board/rockchip/common/built-in.o
                0x0000000000007354                board_fbt_key_pressed
 .text.board_fbt_finalize_bootargs
                0x0000000000007424       0x60 board/rockchip/common/built-in.o
                0x0000000000007424                board_fbt_finalize_bootargs
 .text.board_fbt_boot_failed
                0x0000000000007484       0xcc board/rockchip/common/built-in.o
                0x0000000000007484                board_fbt_boot_failed
 .text.board_fbt_oem
                0x0000000000007550        0x8 board/rockchip/common/built-in.o
                0x0000000000007550                board_fbt_oem
 .text.board_fbt_handle_erase
                0x0000000000007558        0x4 board/rockchip/common/built-in.o
                0x0000000000007558                board_fbt_handle_erase
 .text.board_fbt_handle_flash
                0x000000000000755c        0x4 board/rockchip/common/built-in.o
                0x000000000000755c                board_fbt_handle_flash
 .text.board_fbt_handle_download
                0x0000000000007560        0x4 board/rockchip/common/built-in.o
                0x0000000000007560                board_fbt_handle_download
 .text.board_fbt_load_partition_table
                0x0000000000007564        0x4 board/rockchip/common/built-in.o
                0x0000000000007564                board_fbt_load_partition_table
 .text.board_fbt_get_partition
                0x0000000000007568        0x4 board/rockchip/common/built-in.o
                0x0000000000007568                board_fbt_get_partition
 .text.board_fbt_run_recovery_wipe_data
                0x000000000000756c       0x88 board/rockchip/common/built-in.o
                0x000000000000756c                board_fbt_run_recovery_wipe_data
 .text.read_uboot_cmdline
                0x00000000000075f4       0x6c board/rockchip/common/built-in.o
                0x00000000000075f4                read_uboot_cmdline
 .text.read_rotate_flags
                0x0000000000007660       0xb8 board/rockchip/common/built-in.o
                0x0000000000007660                read_rotate_flags
 .text.board_fbt_preboot
                0x0000000000007718      0x328 board/rockchip/common/built-in.o
                0x0000000000007718                board_fbt_preboot
 .text.MMC_AccessBootPartition
                0x0000000000007a40       0x6c board/rockchip/common/built-in.o
                0x0000000000007a40                MMC_AccessBootPartition
 .text.MMC_SetBootBusWidth
                0x0000000000007aac       0x78 board/rockchip/common/built-in.o
                0x0000000000007aac                MMC_SetBootBusWidth
 .text.MMC_SwitchBoot
                0x0000000000007b24       0x78 board/rockchip/common/built-in.o
                0x0000000000007b24                MMC_SwitchBoot
 .text.MMC_Init
                0x0000000000007b9c      0x708 board/rockchip/common/built-in.o
                0x0000000000007b9c                MMC_Init
 .text._SD_DecodeCID
                0x00000000000082a4       0x88 board/rockchip/common/built-in.o
 .text._SD_DecodeCSD
                0x000000000000832c       0xf0 board/rockchip/common/built-in.o
 .text.unlikely._SD_SwitchFunction
                0x000000000000841c      0x3f8 board/rockchip/common/built-in.o
 .text.SD1X_Init
                0x0000000000008814      0x218 board/rockchip/common/built-in.o
                0x0000000000008814                SD1X_Init
 .text.SD20_Init
                0x0000000000008a2c      0x24c board/rockchip/common/built-in.o
                0x0000000000008a2c                SD20_Init
 .text.SDC_ResetFIFO
                0x0000000000008c78       0x70 board/rockchip/common/built-in.o
 .text.unlikely._ReadRemainData
                0x0000000000008ce8      0x110 board/rockchip/common/built-in.o
 .text._ControlClock
                0x0000000000008df8       0xdc board/rockchip/common/built-in.o
 .text._WaitCardBusy
                0x0000000000008ed4       0x70 board/rockchip/common/built-in.o
 .text._ChangeFreq
                0x0000000000008f44      0x1bc board/rockchip/common/built-in.o
 .text.eMMC_SetDataHigh
                0x0000000000009100       0x20 board/rockchip/common/built-in.o
                0x0000000000009100                eMMC_SetDataHigh
 .text.SDC_IsCardIdValid
                0x0000000000009120       0x10 board/rockchip/common/built-in.o
                0x0000000000009120                SDC_IsCardIdValid
 .text.SDC_IsCardWriteProtected
                0x0000000000009130        0x8 board/rockchip/common/built-in.o
                0x0000000000009130                SDC_IsCardWriteProtected
 .text.SDC_GetHostBusWidth
                0x0000000000009138       0x20 board/rockchip/common/built-in.o
                0x0000000000009138                SDC_GetHostBusWidth
 .text.SDC_SetHostBusWidth
                0x0000000000009158       0x80 board/rockchip/common/built-in.o
                0x0000000000009158                SDC_SetHostBusWidth
 .text.SDC_ResetController
                0x00000000000091d8      0x168 board/rockchip/common/built-in.o
                0x00000000000091d8                SDC_ResetController
 .text.SDC_Init
                0x0000000000009340      0x154 board/rockchip/common/built-in.o
                0x0000000000009340                SDC_Init
 .text.SDC_UpdateCardFreq
                0x0000000000009494       0x2c board/rockchip/common/built-in.o
                0x0000000000009494                SDC_UpdateCardFreq
 .text.SDC_ControlPower
                0x00000000000094c0       0x24 board/rockchip/common/built-in.o
                0x00000000000094c0                SDC_ControlPower
 .text.SDC_BusRequest
                0x00000000000094e4      0xa08 board/rockchip/common/built-in.o
                0x00000000000094e4                SDC_BusRequest
 .text._DataErrorHandle
                0x0000000000009eec       0xa4 board/rockchip/common/built-in.o
 .text._ResponseTimeoutHandle
                0x0000000000009f90       0xc8 board/rockchip/common/built-in.o
 .text._SDMMC_Write
                0x000000000000a058      0x194 board/rockchip/common/built-in.o
 .text._SDMMC_Read
                0x000000000000a1ec      0x1f0 board/rockchip/common/built-in.o
 .text._GenerateRCA
                0x000000000000a3dc       0x3c board/rockchip/common/built-in.o
                0x000000000000a3dc                _GenerateRCA
 .text._IsRCAUsable
                0x000000000000a418       0x3c board/rockchip/common/built-in.o
                0x000000000000a418                _IsRCAUsable
 .text._Identify_SendCmd
                0x000000000000a454        0x4 board/rockchip/common/built-in.o
                0x000000000000a454                _Identify_SendCmd
 .text._Identify_SendAppCmd
                0x000000000000a458       0x80 board/rockchip/common/built-in.o
                0x000000000000a458                _Identify_SendAppCmd
 .text.SDM_Init
                0x000000000000a4d8       0x50 board/rockchip/common/built-in.o
                0x000000000000a4d8                SDM_Init
 .text.SDM_Open
                0x000000000000a528       0x58 board/rockchip/common/built-in.o
                0x000000000000a528                SDM_Open
 .text.SDM_Read
                0x000000000000a580      0x118 board/rockchip/common/built-in.o
                0x000000000000a580                SDM_Read
 .text.SDM_Write
                0x000000000000a698      0x128 board/rockchip/common/built-in.o
                0x000000000000a698                SDM_Write
 .text.SDM_IOCtrl
                0x000000000000a7c0      0x4e0 board/rockchip/common/built-in.o
                0x000000000000a7c0                SDM_IOCtrl
 .text.SDOAM_Delay
                0x000000000000aca0        0x4 board/rockchip/common/built-in.o
                0x000000000000aca0                SDOAM_Delay
 .text.SDOAM_SendMsg
                0x000000000000aca4        0x4 board/rockchip/common/built-in.o
                0x000000000000aca4                SDOAM_SendMsg
 .text.SDOAM_CreateMutex
                0x000000000000aca8       0x3c board/rockchip/common/built-in.o
                0x000000000000aca8                SDOAM_CreateMutex
 .text.SDOAM_RequestMutex
                0x000000000000ace4        0x4 board/rockchip/common/built-in.o
                0x000000000000ace4                SDOAM_RequestMutex
 .text.SDOAM_ReleaseMutex
                0x000000000000ace8        0x4 board/rockchip/common/built-in.o
                0x000000000000ace8                SDOAM_ReleaseMutex
 .text.SDOAM_CreateEvent
                0x000000000000acec       0x3c board/rockchip/common/built-in.o
                0x000000000000acec                SDOAM_CreateEvent
 .text.SDPAM_FlushCache
                0x000000000000ad28        0x4 board/rockchip/common/built-in.o
                0x000000000000ad28                SDPAM_FlushCache
 .text.SDPAM_CleanCache
                0x000000000000ad2c        0x4 board/rockchip/common/built-in.o
                0x000000000000ad2c                SDPAM_CleanCache
 .text.SDPAM_InvalidateCache
                0x000000000000ad30        0x4 board/rockchip/common/built-in.o
                0x000000000000ad30                SDPAM_InvalidateCache
 .text.SDPAM_GetAHBFreq
                0x000000000000ad34        0x4 board/rockchip/common/built-in.o
                0x000000000000ad34                SDPAM_GetAHBFreq
 .text.SDPAM_SDCClkEnable
                0x000000000000ad38        0x4 board/rockchip/common/built-in.o
                0x000000000000ad38                SDPAM_SDCClkEnable
 .text.SDPAM_SDCReset
                0x000000000000ad3c       0x14 board/rockchip/common/built-in.o
                0x000000000000ad3c                SDPAM_SDCReset
 .text.SDPAM_SetMmcClkDiv
                0x000000000000ad50       0x14 board/rockchip/common/built-in.o
                0x000000000000ad50                SDPAM_SetMmcClkDiv
 .text.SDPAM_IOMUX_SetSDPort
                0x000000000000ad64        0x8 board/rockchip/common/built-in.o
                0x000000000000ad64                SDPAM_IOMUX_SetSDPort
 .text.SDPAM_ControlPower
                0x000000000000ad6c        0x4 board/rockchip/common/built-in.o
                0x000000000000ad6c                SDPAM_ControlPower
 .text.SdmmcReinit
                0x000000000000ad70       0x7c board/rockchip/common/built-in.o
                0x000000000000ad70                SdmmcReinit
 .text.SdmmcInit
                0x000000000000adec      0x154 board/rockchip/common/built-in.o
                0x000000000000adec                SdmmcInit
 .text.SdmmcDeInit
                0x000000000000af40        0x8 board/rockchip/common/built-in.o
                0x000000000000af40                SdmmcDeInit
 .text.SdmmcBootWritePBA
                0x000000000000af48       0xc4 board/rockchip/common/built-in.o
                0x000000000000af48                SdmmcBootWritePBA
 .text.SdmmcBootReadPBA
                0x000000000000b00c       0xc8 board/rockchip/common/built-in.o
                0x000000000000b00c                SdmmcBootReadPBA
 .text.SdmmcBootReadLBA
                0x000000000000b0d4       0x6c board/rockchip/common/built-in.o
                0x000000000000b0d4                SdmmcBootReadLBA
 .text.SdmmcBootWriteLBA
                0x000000000000b140       0x40 board/rockchip/common/built-in.o
                0x000000000000b140                SdmmcBootWriteLBA
 .text.SdmmcReadID
                0x000000000000b180       0x28 board/rockchip/common/built-in.o
                0x000000000000b180                SdmmcReadID
 .text.SdmmcReadFlashInfo
                0x000000000000b1a8       0xa8 board/rockchip/common/built-in.o
                0x000000000000b1a8                SdmmcReadFlashInfo
 .text.SdmmcGetCapacity
                0x000000000000b250       0x20 board/rockchip/common/built-in.o
                0x000000000000b250                SdmmcGetCapacity
 .text.SdmmcSysDataLoad
                0x000000000000b270       0x34 board/rockchip/common/built-in.o
                0x000000000000b270                SdmmcSysDataLoad
 .text.SdmmcSysDataStore
                0x000000000000b2a4       0x34 board/rockchip/common/built-in.o
                0x000000000000b2a4                SdmmcSysDataStore
 .text.SdmmcGetFwOffset
                0x000000000000b2d8       0x24 board/rockchip/common/built-in.o
                0x000000000000b2d8                SdmmcGetFwOffset
 .text.SdmmcGetSysOffset
                0x000000000000b2fc       0x24 board/rockchip/common/built-in.o
                0x000000000000b2fc                SdmmcGetSysOffset
 .text.SdmmcBootErase
                0x000000000000b320        0x8 board/rockchip/common/built-in.o
                0x000000000000b320                SdmmcBootErase
 .text.SdmmcCheckIdBlock
                0x000000000000b328        0x4 board/rockchip/common/built-in.o
                0x000000000000b328                SdmmcCheckIdBlock
 .text.SdmmcGetSDCardBootMode
                0x000000000000b32c       0x10 board/rockchip/common/built-in.o
                0x000000000000b32c                SdmmcGetSDCardBootMode
 .text.CryptoSHAInit
                0x000000000000b33c       0x58 board/rockchip/common/built-in.o
                0x000000000000b33c                CryptoSHAInit
 .text.CryptoSHAStart
                0x000000000000b394       0x58 board/rockchip/common/built-in.o
                0x000000000000b394                CryptoSHAStart
 .text.CryptoSHAEnd
                0x000000000000b3ec       0x50 board/rockchip/common/built-in.o
                0x000000000000b3ec                CryptoSHAEnd
 .text.CryptoRSAStart
                0x000000000000b43c       0x94 board/rockchip/common/built-in.o
                0x000000000000b43c                CryptoRSAStart
 .text.CryptoRSAEnd
                0x000000000000b4d0       0x3c board/rockchip/common/built-in.o
                0x000000000000b4d0                CryptoRSAEnd
 .text.CryptoRSAInit
                0x000000000000b50c       0x3c board/rockchip/common/built-in.o
                0x000000000000b50c                CryptoRSAInit
 .text.CryptoInit
                0x000000000000b548        0xc board/rockchip/common/built-in.o
                0x000000000000b548                CryptoInit
 .text.EfuseRead
                0x000000000000b554       0x9c board/rockchip/common/built-in.o
                0x000000000000b554                EfuseRead
 .text.SecureBootCheck
                0x000000000000b5f0       0x5c board/rockchip/common/built-in.o
                0x000000000000b5f0                SecureBootCheck
 .text.SecureBootUnlock
                0x000000000000b64c       0x4c board/rockchip/common/built-in.o
                0x000000000000b64c                SecureBootUnlock
 .text.SecureBootUnlockCheck
                0x000000000000b698       0x10 board/rockchip/common/built-in.o
                0x000000000000b698                SecureBootUnlockCheck
 .text.SecureBootLockLoader
                0x000000000000b6a8        0x4 board/rockchip/common/built-in.o
                0x000000000000b6a8                SecureBootLockLoader
 .text.SecureBootSetSysData2Kernel
                0x000000000000b6ac       0xd8 board/rockchip/common/built-in.o
                0x000000000000b6ac                SecureBootSetSysData2Kernel
 .text.SecureBootImageCheck
                0x000000000000b784        0xc board/rockchip/common/built-in.o
                0x000000000000b784                SecureBootImageCheck
 .text.SecureBootSecureState2Kernel
                0x000000000000b790       0x24 board/rockchip/common/built-in.o
                0x000000000000b790                SecureBootSecureState2Kernel
 .text.SecureRKModeChkPubkey
                0x000000000000b7b4       0x54 board/rockchip/common/built-in.o
 .text.SecureRKModeVerifyLoader
                0x000000000000b808       0xa4 board/rockchip/common/built-in.o
 .text.SecureNSModeVerifyLoader
                0x000000000000b8ac       0x80 board/rockchip/common/built-in.o
 .text.SecureNSModeSignCheck
                0x000000000000b92c       0x5c board/rockchip/common/built-in.o
 .text.SecureRKModeVerifyBootImage
                0x000000000000b988      0x170 board/rockchip/common/built-in.o
 .text.SecureModeVerifyLoader
                0x000000000000baf8       0x1c board/rockchip/common/built-in.o
                0x000000000000baf8                SecureModeVerifyLoader
 .text.SecureModeVerifyUbootImage
                0x000000000000bb14      0x1fc board/rockchip/common/built-in.o
                0x000000000000bb14                SecureModeVerifyUbootImage
 .text.SecureModeVerifyBootImage
                0x000000000000bd10      0x1e0 board/rockchip/common/built-in.o
                0x000000000000bd10                SecureModeVerifyBootImage
 .text.SecureModeBootImageCheck
                0x000000000000bef0       0xc4 board/rockchip/common/built-in.o
                0x000000000000bef0                SecureModeBootImageCheck
 .text.SecureModeRSAKeyCheck
                0x000000000000bfb4       0xf4 board/rockchip/common/built-in.o
                0x000000000000bfb4                SecureModeRSAKeyCheck
 .text.SecureModeLockLoader
                0x000000000000c0a8       0x64 board/rockchip/common/built-in.o
                0x000000000000c0a8                SecureModeLockLoader
 .text.SecureModeInit
                0x000000000000c10c      0x404 board/rockchip/common/built-in.o
                0x000000000000c10c                SecureModeInit
 .text.FW_ReIntForUpdate
                0x000000000000c510       0x3c board/rockchip/common/built-in.o
                0x000000000000c510                FW_ReIntForUpdate
 .text.FW_SorageLowFormatEn
                0x000000000000c54c       0x10 board/rockchip/common/built-in.o
                0x000000000000c54c                FW_SorageLowFormatEn
 .text.FW_SorageLowFormat
                0x000000000000c55c       0x68 board/rockchip/common/built-in.o
                0x000000000000c55c                FW_SorageLowFormat
 .text.FW_StorageGetValid
                0x000000000000c5c4       0x14 board/rockchip/common/built-in.o
                0x000000000000c5c4                FW_StorageGetValid
 .text.FW_GetCurEraseBlock
                0x000000000000c5d8       0x2c board/rockchip/common/built-in.o
                0x000000000000c5d8                FW_GetCurEraseBlock
 .text.FW_GetTotleBlk
                0x000000000000c604       0x2c board/rockchip/common/built-in.o
                0x000000000000c604                FW_GetTotleBlk
 .text.StorageReadPba
                0x000000000000c630       0x44 board/rockchip/common/built-in.o
                0x000000000000c630                StorageReadPba
 .text.StorageWritePba
                0x000000000000c674       0x44 board/rockchip/common/built-in.o
                0x000000000000c674                StorageWritePba
 .text.StorageReadLba
                0x000000000000c6b8       0x44 board/rockchip/common/built-in.o
                0x000000000000c6b8                StorageReadLba
 .text.StorageWriteLba
                0x000000000000c6fc       0x4c board/rockchip/common/built-in.o
                0x000000000000c6fc                StorageWriteLba
 .text.StorageGetCapacity
                0x000000000000c748       0x30 board/rockchip/common/built-in.o
                0x000000000000c748                StorageGetCapacity
 .text.StorageSysDataLoad
                0x000000000000c778       0x50 board/rockchip/common/built-in.o
                0x000000000000c778                StorageSysDataLoad
 .text.StorageSysDataStore
                0x000000000000c7c8       0x3c board/rockchip/common/built-in.o
                0x000000000000c7c8                StorageSysDataStore
 .text.StorageUbootSysDataLoad
                0x000000000000c804        0x8 board/rockchip/common/built-in.o
                0x000000000000c804                StorageUbootSysDataLoad
 .text.StorageUbootSysDataStore
                0x000000000000c80c        0x8 board/rockchip/common/built-in.o
                0x000000000000c80c                StorageUbootSysDataStore
 .text.StorageVendorSysDataLoad
                0x000000000000c814       0x4c board/rockchip/common/built-in.o
                0x000000000000c814                StorageVendorSysDataLoad
 .text.StorageVendorSysDataStore
                0x000000000000c860       0x48 board/rockchip/common/built-in.o
                0x000000000000c860                StorageVendorSysDataStore
 .text.StorageReadFlashInfo
                0x000000000000c8a8       0x30 board/rockchip/common/built-in.o
                0x000000000000c8a8                StorageReadFlashInfo
 .text.StorageInit
                0x000000000000c8d8       0x9c board/rockchip/common/built-in.o
                0x000000000000c8d8                StorageInit
 .text.StorageEraseBlock
                0x000000000000c974       0x5c board/rockchip/common/built-in.o
                0x000000000000c974                StorageEraseBlock
 .text.StorageGetBootMedia
                0x000000000000c9d0       0x14 board/rockchip/common/built-in.o
                0x000000000000c9d0                StorageGetBootMedia
 .text.StorageGetSDFwOffset
                0x000000000000c9e4       0x28 board/rockchip/common/built-in.o
                0x000000000000c9e4                StorageGetSDFwOffset
 .text.StorageGetSDSysOffset
                0x000000000000ca0c       0x28 board/rockchip/common/built-in.o
                0x000000000000ca0c                StorageGetSDSysOffset
 .text.StorageReadId
                0x000000000000ca34       0x38 board/rockchip/common/built-in.o
                0x000000000000ca34                StorageReadId
 .text.StorageSDCardUpdateMode
                0x000000000000ca6c       0x38 board/rockchip/common/built-in.o
                0x000000000000ca6c                StorageSDCardUpdateMode
 .text.board_lmb_reserve
                0x000000000000caa4       0x44 board/rockchip/rk32xx/built-in.o
                0x000000000000caa4                board_lmb_reserve
 .text.board_storage_init
                0x000000000000cae8       0x38 board/rockchip/rk32xx/built-in.o
                0x000000000000cae8                board_storage_init
 .text.board_init
                0x000000000000cb20       0x20 board/rockchip/rk32xx/built-in.o
                0x000000000000cb20                board_init
 .text.checkboard
                0x000000000000cb40       0x18 board/rockchip/rk32xx/built-in.o
                0x000000000000cb40                checkboard
 .text.arch_early_init_r
                0x000000000000cb58       0x14 board/rockchip/rk32xx/built-in.o
                0x000000000000cb58                arch_early_init_r
 .text.board_late_init
                0x000000000000cb6c      0x158 board/rockchip/rk32xx/built-in.o
                0x000000000000cb6c                board_late_init
 .text.show_boot_progress
                0x000000000000ccc4        0x4 common/built-in.o
                0x000000000000ccc4                show_boot_progress
 .text.main_loop
                0x000000000000ccc8       0x40 common/built-in.o
                0x000000000000ccc8                main_loop
 .text.find_cmd_tbl
                0x000000000000cd08       0xa4 common/built-in.o
                0x000000000000cd08                find_cmd_tbl
 .text.find_cmd
                0x000000000000cdac       0x28 common/built-in.o
                0x000000000000cdac                find_cmd
 .text.cmd_usage
                0x000000000000cdd4       0x5c common/built-in.o
                0x000000000000cdd4                cmd_usage
 .text._do_help
                0x000000000000ce30      0x184 common/built-in.o
                0x000000000000ce30                _do_help
 .text.cmd_process
                0x000000000000cfb4       0xc0 common/built-in.o
                0x000000000000cfb4                cmd_process
 .text.dummy    0x000000000000d074        0x4 common/built-in.o
 .text.get_version
                0x000000000000d078        0x8 common/built-in.o
                0x000000000000d078                get_version
 .text.jumptable_init
                0x000000000000d080      0x190 common/built-in.o
                0x000000000000d080                jumptable_init
 .text.b_reset  0x000000000000d210       0x1c common/built-in.o
 .text.static_get
                0x000000000000d22c       0x1c common/built-in.o
 .text.static_peek
                0x000000000000d248        0xc common/built-in.o
 .text.file_peek
                0x000000000000d254        0xc common/built-in.o
 .text.mapset   0x000000000000d260       0x24 common/built-in.o
 .text.syntax_err
                0x000000000000d284        0xc common/built-in.o
 .text.do_showvar
                0x000000000000d290       0xf4 common/built-in.o
 .text.xmalloc  0x000000000000d384       0x20 common/built-in.o
 .text.new_pipe
                0x000000000000d3a4       0x28 common/built-in.o
 .text.free_pipe_list
                0x000000000000d3cc       0xfc common/built-in.o
 .text.xrealloc
                0x000000000000d4c8       0x20 common/built-in.o
 .text.done_command
                0x000000000000d4e8       0x8c common/built-in.o
 .text.done_pipe
                0x000000000000d574       0x48 common/built-in.o
 .text.done_word
                0x000000000000d5bc      0x2e4 common/built-in.o
 .text.is_assignment
                0x000000000000d8a0       0x54 common/built-in.o
 .text.file_get
                0x000000000000d8f4      0x1d0 common/built-in.o
 .text.b_addchr
                0x000000000000dac4       0x80 common/built-in.o
 .text.b_addqchr
                0x000000000000db44       0x50 common/built-in.o
 .text.get_local_var
                0x000000000000db94       0x98 common/built-in.o
                0x000000000000db94                get_local_var
 .text.set_local_var
                0x000000000000dc2c      0x1c0 common/built-in.o
                0x000000000000dc2c                set_local_var
 .text.insert_var_value_sub
                0x000000000000ddec      0x2b0 common/built-in.o
 .text.parse_string_outer
                0x000000000000e09c       0xf0 common/built-in.o
                0x000000000000e09c                parse_string_outer
 .text.run_list_real
                0x000000000000e18c      0x7ec common/built-in.o
 .text.parse_stream_outer
                0x000000000000e978      0x6e8 common/built-in.o
 .text.parse_file_outer
                0x000000000000f060       0x44 common/built-in.o
                0x000000000000f060                parse_file_outer
 .text.u_boot_hush_start
                0x000000000000f0a4       0x54 common/built-in.o
                0x000000000000f0a4                u_boot_hush_start
 .text.run_command
                0x000000000000f0f8        0x8 common/built-in.o
                0x000000000000f0f8                run_command
 .text.run_command_list
                0x000000000000f100       0x5c common/built-in.o
                0x000000000000f100                run_command_list
 .text.cli_loop
                0x000000000000f15c        0xc common/built-in.o
                0x000000000000f15c                cli_loop
 .text.cli_init
                0x000000000000f168        0x4 common/built-in.o
                0x000000000000f168                cli_init
 .text.delete_char.part.0
                0x000000000000f16c       0xd4 common/built-in.o
 .text.cli_readline_into_buffer
                0x000000000000f240      0x1f0 common/built-in.o
                0x000000000000f240                cli_readline_into_buffer
 .text.cli_readline
                0x000000000000f430       0x14 common/built-in.o
                0x000000000000f430                cli_readline
 .text.bootdelay_process
                0x000000000000f444       0x48 common/built-in.o
                0x000000000000f444                bootdelay_process
 .text.autoboot_command
                0x000000000000f48c       0xd8 common/built-in.o
                0x000000000000f48c                autoboot_command
 .text.display_text_info
                0x000000000000f564        0x8 common/built-in.o
 .text.setup_mon_len
                0x000000000000f56c       0x20 common/built-in.o
 .text.setup_fdt
                0x000000000000f58c        0x8 common/built-in.o
 .text.reserve_round_4k
                0x000000000000f594       0x18 common/built-in.o
 .text.reserve_mmu
                0x000000000000f5ac       0x38 common/built-in.o
 .text.reserve_lcd
                0x000000000000f5e4       0x14 common/built-in.o
 .text.reserve_trace
                0x000000000000f5f8        0x8 common/built-in.o
 .text.reserve_global_buffers
                0x000000000000f600       0x4c common/built-in.o
 .text.reserve_uboot
                0x000000000000f64c       0x30 common/built-in.o
 .text.reserve_malloc
                0x000000000000f67c       0x18 common/built-in.o
 .text.setup_machine
                0x000000000000f694        0x8 common/built-in.o
 .text.reserve_global_data
                0x000000000000f69c       0x1c common/built-in.o
 .text.reserve_fdt
                0x000000000000f6b8       0x4c common/built-in.o
 .text.display_new_sp
                0x000000000000f704        0x8 common/built-in.o
 .text.initf_malloc
                0x000000000000f70c        0x8 common/built-in.o
 .text.initf_dm
                0x000000000000f714        0x8 common/built-in.o
 .text.setup_reloc
                0x000000000000f71c       0x24 common/built-in.o
 .text.reloc_fdt
                0x000000000000f740       0x30 common/built-in.o
 .text.announce_dram_init
                0x000000000000f770       0x18 common/built-in.o
 .text.init_baud_rate
                0x000000000000f788       0x2c common/built-in.o
 .text.mark_bootstage
                0x000000000000f7b4       0x14 common/built-in.o
 .text.reserve_board
                0x000000000000f7c8       0x38 common/built-in.o
 .text.coloured_LED_init
                0x000000000000f800        0x4 common/built-in.o
                0x000000000000f800                coloured_LED_init
 .text.red_led_on
                0x000000000000f804        0x4 common/built-in.o
                0x000000000000f804                red_led_on
 .text.board_add_ram_info
                0x000000000000f808        0x4 common/built-in.o
                0x000000000000f808                board_add_ram_info
 .text.show_dram_config
                0x000000000000f80c       0x38 common/built-in.o
 .text.setup_dram_config
                0x000000000000f844       0x10 common/built-in.o
 .text.board_get_usable_ram_top
                0x000000000000f854        0x8 common/built-in.o
                0x000000000000f854                board_get_usable_ram_top
 .text.setup_dest_addr
                0x000000000000f85c       0x40 common/built-in.o
 .text.reserve_stacks
                0x000000000000f89c       0x1c common/built-in.o
 .text.board_init_f
                0x000000000000f8b8       0x28 common/built-in.o
                0x000000000000f8b8                board_init_f
 .text.bootstage_relocate
                0x000000000000f8e0        0x8 common/built-in.o
 .text.initr_trace
                0x000000000000f8e8        0x8 common/built-in.o
 .text.initr_reloc_global_data
                0x000000000000f8f0       0x28 common/built-in.o
 .text.initr_barrier
                0x000000000000f918        0x8 common/built-in.o
 .text.power_init_board
                0x000000000000f920        0x8 common/built-in.o
                0x000000000000f920                power_init_board
 .text.initr_announce
                0x000000000000f928        0x8 common/built-in.o
 .text.run_main_loop
                0x000000000000f930        0xc common/built-in.o
 .text.initr_enable_interrupts
                0x000000000000f93c       0x10 common/built-in.o
 .text.initr_jumptable
                0x000000000000f94c       0x10 common/built-in.o
 .text.initr_env
                0x000000000000f95c       0x30 common/built-in.o
 .text.initr_rk_storage
                0x000000000000f98c       0x10 common/built-in.o
 .text.initr_serial
                0x000000000000f99c       0x10 common/built-in.o
 .text.initr_malloc
                0x000000000000f9ac       0x24 common/built-in.o
 .text.initr_caches
                0x000000000000f9d0       0x10 common/built-in.o
 .text.initr_reloc
                0x000000000000f9e0       0x20 common/built-in.o
 .text.cpu_secondary_init_r
                0x000000000000fa00        0x4 common/built-in.o
                0x000000000000fa00                cpu_secondary_init_r
 .text.initr_secondary_cpu
                0x000000000000fa04       0x10 common/built-in.o
 .text.board_init_r
                0x000000000000fa14       0x14 common/built-in.o
                0x000000000000fa14                board_init_r
 .text.show_board_info
                0x000000000000fa28        0x4 common/built-in.o
                0x000000000000fa28                show_board_info
 .text.do_go_exec
                0x000000000000fa2c       0x18 common/built-in.o
                0x000000000000fa2c                do_go_exec
 .text.do_go    0x000000000000fa44       0x70 common/built-in.o
                0x000000000000fa44                do_go
 .text.do_bootm
                0x000000000000fab4       0xfc common/built-in.o
                0x000000000000fab4                do_bootm
 .text.bootm_find_ramdisk_fdt
                0x000000000000fbb0       0xb4 common/built-in.o
                0x000000000000fbb0                bootm_find_ramdisk_fdt
 .text.do_bootm_states
                0x000000000000fc64      0x728 common/built-in.o
                0x000000000000fc64                do_bootm_states
 .text.do_bootm_standalone
                0x000000000001038c       0x64 common/built-in.o
 .text.arch_preboot_os
                0x00000000000103f0        0x4 common/built-in.o
                0x00000000000103f0                arch_preboot_os
 .text.boot_selected_os
                0x00000000000103f4       0x5c common/built-in.o
                0x00000000000103f4                boot_selected_os
 .text.bootm_os_get_boot_func
                0x0000000000010450       0x10 common/built-in.o
                0x0000000000010450                bootm_os_get_boot_func
 .text.do_help  0x0000000000010460       0x44 common/built-in.o
 .text.do_version
                0x00000000000104a4       0x38 common/built-in.o
 .text.env_attr_walk
                0x00000000000104dc      0x120 common/built-in.o
                0x00000000000104dc                env_attr_walk
 .text.env_attr_lookup
                0x00000000000105fc      0x190 common/built-in.o
                0x00000000000105fc                env_attr_lookup
 .text.clear_callback
                0x000000000001078c       0x10 common/built-in.o
 .text.on_callbacks
                0x000000000001079c       0x48 common/built-in.o
 .text.set_callback
                0x00000000000107e4       0xd8 common/built-in.o
 .text.env_callback_init
                0x00000000000108bc      0x114 common/built-in.o
                0x00000000000108bc                env_callback_init
 .text.clear_flags
                0x00000000000109d0       0x10 common/built-in.o
 .text.on_flags
                0x00000000000109e0       0x48 common/built-in.o
 .text.env_flags_parse_vartype
                0x0000000000010a28       0x50 common/built-in.o
                0x0000000000010a28                env_flags_parse_vartype
 .text.env_flags_parse_varaccess
                0x0000000000010a78       0x58 common/built-in.o
                0x0000000000010a78                env_flags_parse_varaccess
 .text.set_flags
                0x0000000000010ad0       0xac common/built-in.o
 .text.env_flags_init
                0x0000000000010b7c       0xd4 common/built-in.o
                0x0000000000010b7c                env_flags_init
 .text.env_flags_validate
                0x0000000000010c50      0x238 common/built-in.o
                0x0000000000010c50                env_flags_validate
 .text.env_init
                0x0000000000010e88       0x1c common/built-in.o
                0x0000000000010e88                env_init
 .text.saveenv  0x0000000000010ea4       0xf0 common/built-in.o
                0x0000000000010ea4                saveenv
 .text.env_relocate_spec
                0x0000000000010f94       0xc0 common/built-in.o
                0x0000000000010f94                env_relocate_spec
 .text.do_bmp   0x0000000000011054       0x54 common/built-in.o
 .text.do_bmp_info
                0x00000000000110a8      0x100 common/built-in.o
 .text.bmp_display
                0x00000000000111a8       0x38 common/built-in.o
                0x00000000000111a8                bmp_display
 .text.do_bmp_display
                0x00000000000111e0       0xa4 common/built-in.o
 .text.do_exit  0x0000000000011284       0x34 common/built-in.o
 .text.fdt_valid
                0x00000000000112b8       0xc0 common/built-in.o
 .text.is_printable_string
                0x0000000000011378       0x90 common/built-in.o
 .text.print_data
                0x0000000000011408      0x170 common/built-in.o
 .text.set_working_fdt_addr
                0x0000000000011578       0x1c common/built-in.o
                0x0000000000011578                set_working_fdt_addr
 .text.do_fdt   0x0000000000011594      0xebc common/built-in.o
 .text.get_cells_len
                0x0000000000012450       0x3c common/built-in.o
 .text.fdt_find_or_add_subnode.constprop.6
                0x000000000001248c       0x6c common/built-in.o
 .text.chto     0x00000000000124f8       0x2c common/built-in.o
                0x00000000000124f8                chto
 .text.toch     0x0000000000012524       0x2c common/built-in.o
                0x0000000000012524                toch
 .text.fdt_getprop_u32_default_node
                0x0000000000012550       0x40 common/built-in.o
                0x0000000000012550                fdt_getprop_u32_default_node
 .text.fdt_find_and_setprop
                0x0000000000012590       0x70 common/built-in.o
                0x0000000000012590                fdt_find_and_setprop
 .text.fdt_initrd
                0x0000000000012600      0x250 common/built-in.o
                0x0000000000012600                fdt_initrd
 .text.fdt_chosen
                0x0000000000012850      0x1b8 common/built-in.o
                0x0000000000012850                fdt_chosen
 .text.do_fixup_by_path
                0x0000000000012a08       0x54 common/built-in.o
                0x0000000000012a08                do_fixup_by_path
 .text.fdt_fixup_memory_banks
                0x0000000000012a5c      0x1dc common/built-in.o
                0x0000000000012a5c                fdt_fixup_memory_banks
 .text.fdt_fixup_memory
                0x0000000000012c38       0x20 common/built-in.o
                0x0000000000012c38                fdt_fixup_memory
 .text.fdt_fixup_ethernet
                0x0000000000012c58      0x158 common/built-in.o
                0x0000000000012c58                fdt_fixup_ethernet
 .text.fdt_shrink_to_minimum
                0x0000000000012db0       0xd4 common/built-in.o
                0x0000000000012db0                fdt_shrink_to_minimum
 .text.getvar_version
                0x0000000000012e84        0xc common/built-in.o
 .text.getvar_version_baseband
                0x0000000000012e90        0xc common/built-in.o
 .text.getvar_version_bootloader
                0x0000000000012e9c        0xc common/built-in.o
 .text.getvar_unlocked
                0x0000000000012ea8       0x34 common/built-in.o
 .text.getvar_secure
                0x0000000000012edc       0x34 common/built-in.o
 .text.getvar_product
                0x0000000000012f10        0xc common/built-in.o
 .text.getvar_serialno
                0x0000000000012f1c       0x10 common/built-in.o
 .text.str2wide
                0x0000000000012f2c       0x80 common/built-in.o
 .text.getvar_checksum
                0x0000000000012fac      0x13c common/built-in.o
 .text.getvar_partition_offset
                0x00000000000130e8       0x64 common/built-in.o
 .text.getvar_partition_size
                0x000000000001314c       0x64 common/built-in.o
 .text.getvar_partition_type
                0x00000000000131b0       0x70 common/built-in.o
 .text.fbt_handle_erase
                0x0000000000013220       0xa0 common/built-in.o
 .text.fbt_set_unlocked
                0x00000000000132c0       0x48 common/built-in.o
 .text.fbt_handle_response
                0x0000000000013308      0x12c common/built-in.o
 .text.fbt_handle_reboot
                0x0000000000013434       0xc0 common/built-in.o
 .text.fbt_send_raw_info
                0x00000000000134f4       0xe8 common/built-in.o
 .text.do_fastboot
                0x00000000000135dc      0xf04 common/built-in.o
 .text.fbt_receive_firstcmd
                0x00000000000144e0       0x34 common/built-in.o
                0x00000000000144e0                fbt_receive_firstcmd
 .text.fbt_event_handler
                0x0000000000014514      0x110 common/built-in.o
 .text.fbt_fastboot_init
                0x0000000000014624      0x158 common/built-in.o
                0x0000000000014624                fbt_fastboot_init
 .text.do_bootrk
                0x000000000001477c      0x960 common/built-in.o
                0x000000000001477c                do_bootrk
 .text.rkusb_send_csw
                0x00000000000150dc       0xb8 common/built-in.o
 .text.rkusb_receive_firstcbw
                0x0000000000015194       0x40 common/built-in.o
                0x0000000000015194                rkusb_receive_firstcbw
 .text.rkusb_event_handler
                0x00000000000151d4      0x13c common/built-in.o
 .text.FW_ReadID
                0x0000000000015310       0x6c common/built-in.o
                0x0000000000015310                FW_ReadID
 .text.do_rockusb_cmd
                0x000000000001537c      0x4e8 common/built-in.o
                0x000000000001537c                do_rockusb_cmd
 .text.rkusb_handle_datarx
                0x0000000000015864      0x1a4 common/built-in.o
                0x0000000000015864                rkusb_handle_datarx
 .text.rkusb_handle_datatx
                0x0000000000015a08      0x198 common/built-in.o
                0x0000000000015a08                rkusb_handle_datatx
 .text.do_rockusb
                0x0000000000015ba0      0x580 common/built-in.o
                0x0000000000015ba0                do_rockusb
 .text.get_entry_ram
                0x0000000000016120      0x158 common/built-in.o
 .text.get_content_ram
                0x0000000000016278       0x8c common/built-in.o
                0x0000000000016278                get_content_ram
 .text.get_content
                0x0000000000016304      0x294 common/built-in.o
                0x0000000000016304                get_content
 .text.free_content
                0x0000000000016598       0x30 common/built-in.o
                0x0000000000016598                free_content
 .text.load_content_data
                0x00000000000165c8       0x2c common/built-in.o
                0x00000000000165c8                load_content_data
 .text.load_content
                0x00000000000165f4       0x80 common/built-in.o
                0x00000000000165f4                load_content
 .text.show_resource_image
                0x0000000000016674      0x128 common/built-in.o
                0x0000000000016674                show_resource_image
 .text.lcd_get_size
                0x000000000001679c       0x34 common/built-in.o
                0x000000000001679c                lcd_get_size
 .text.lcd_sync
                0x00000000000167d0       0x3c common/built-in.o
                0x00000000000167d0                lcd_sync
 .text.lcd_enable_logo
                0x000000000001680c       0x10 common/built-in.o
                0x000000000001680c                lcd_enable_logo
 .text.drv_lcd_init
                0x000000000001681c       0x9c common/built-in.o
                0x000000000001681c                drv_lcd_init
 .text.lcd_setcolor_bypix
                0x00000000000168b8       0x20 common/built-in.o
                0x00000000000168b8                lcd_setcolor_bypix
 .text.rk_bitmap_from_resource
                0x00000000000168d8       0x1c common/built-in.o
                0x00000000000168d8                rk_bitmap_from_resource
 .text.bitmap_plot
                0x00000000000168f4      0x13c common/built-in.o
                0x00000000000168f4                bitmap_plot
 .text.lcd_logo
                0x0000000000016a30       0x58 common/built-in.o
 .text.LCD_clear
                0x0000000000016a88       0x50 common/built-in.o
                0x0000000000016a88                LCD_clear
 .text.lcd_clear
                0x0000000000016ad8       0x84 common/built-in.o
                0x0000000000016ad8                lcd_clear
 .text.do_lcd_clear
                0x0000000000016b5c       0x18 common/built-in.o
 .text.lcd_display_bitmap
                0x0000000000016b74      0x734 common/built-in.o
                0x0000000000016b74                lcd_display_bitmap
 .text.lcd_display_bitmap_center
                0x00000000000172a8       0x9c common/built-in.o
                0x00000000000172a8                lcd_display_bitmap_center
 .text.do_env_delete
                0x0000000000017344       0xa8 common/built-in.o
 .text.env_print
                0x00000000000173ec       0xc8 common/built-in.o
 .text.do_env_print
                0x00000000000174b4       0xc4 common/built-in.o
 .text.do_env   0x0000000000017578       0x5c common/built-in.o
 .text.do_env_import
                0x00000000000175d4      0x2a0 common/built-in.o
 .text.do_env_default
                0x0000000000017874       0xb4 common/built-in.o
 .text.do_env_save
                0x0000000000017928       0x2c common/built-in.o
                0x0000000000017928                do_env_save
 .text._do_env_set.isra.1
                0x0000000000017954      0x1d8 common/built-in.o
 .text.do_env_set
                0x0000000000017b2c       0x1c common/built-in.o
 .text.setenv   0x0000000000017b48       0x60 common/built-in.o
                0x0000000000017b48                setenv
 .text.setenv_ulong
                0x0000000000017ba8       0x20 common/built-in.o
                0x0000000000017ba8                setenv_ulong
 .text.setenv_hex
                0x0000000000017bc8       0x34 common/built-in.o
                0x0000000000017bc8                setenv_hex
 .text.do_env_export
                0x0000000000017bfc      0x268 common/built-in.o
 .text.envmatch
                0x0000000000017e64       0x6c common/built-in.o
                0x0000000000017e64                envmatch
 .text.getenv_f
                0x0000000000017ed0       0xcc common/built-in.o
                0x0000000000017ed0                getenv_f
 .text.getenv   0x0000000000017f9c       0x78 common/built-in.o
                0x0000000000017f9c                getenv
 .text.getenv_ulong
                0x0000000000018014       0x30 common/built-in.o
                0x0000000000018014                getenv_ulong
 .text.getenv_hex
                0x0000000000018044       0x34 common/built-in.o
                0x0000000000018044                getenv_hex
 .text.env_get_char_spec
                0x0000000000018078        0xc common/built-in.o
                0x0000000000018078                env_get_char_spec
 .text.env_get_addr
                0x0000000000018084       0x20 common/built-in.o
                0x0000000000018084                env_get_addr
 .text.env_get_char_memory
                0x00000000000180a4       0x10 common/built-in.o
                0x00000000000180a4                env_get_char_memory
 .text.env_get_char
                0x00000000000180b4       0x30 common/built-in.o
                0x00000000000180b4                env_get_char
 .text.getenv_yesno
                0x00000000000180e4       0x50 common/built-in.o
                0x00000000000180e4                getenv_yesno
 .text.getenv_default
                0x0000000000018134       0x30 common/built-in.o
                0x0000000000018134                getenv_default
 .text.set_default_env
                0x0000000000018164       0xbc common/built-in.o
                0x0000000000018164                set_default_env
 .text.set_default_vars
                0x0000000000018220       0x3c common/built-in.o
                0x0000000000018220                set_default_vars
 .text.env_relocate
                0x000000000001825c       0x30 common/built-in.o
                0x000000000001825c                env_relocate
 .text.console_setfile
                0x000000000001828c       0xbc common/built-in.o
 .text.serial_printf
                0x0000000000018348       0x50 common/built-in.o
                0x0000000000018348                serial_printf
 .text.puts     0x0000000000018398       0x40 common/built-in.o
                0x0000000000018398                puts
 .text.printf   0x00000000000183d8       0x5c common/built-in.o
                0x00000000000183d8                printf
 .text.fgetc    0x0000000000018434       0x2c common/built-in.o
                0x0000000000018434                fgetc
 .text.getc     0x0000000000018460       0x24 common/built-in.o
                0x0000000000018460                getc
 .text.ftstc    0x0000000000018484       0x2c common/built-in.o
                0x0000000000018484                ftstc
 .text.tstc     0x00000000000184b0       0x24 common/built-in.o
                0x00000000000184b0                tstc
 .text.fputc    0x00000000000184d4       0x24 common/built-in.o
                0x00000000000184d4                fputc
 .text.putc     0x00000000000184f8       0x28 common/built-in.o
                0x00000000000184f8                putc
 .text.vprintf  0x0000000000018520       0x34 common/built-in.o
                0x0000000000018520                vprintf
 .text.ctrlc    0x0000000000018554       0x58 common/built-in.o
                0x0000000000018554                ctrlc
 .text.had_ctrlc
                0x00000000000185ac       0x10 common/built-in.o
                0x00000000000185ac                had_ctrlc
 .text.clear_ctrlc
                0x00000000000185bc       0x14 common/built-in.o
                0x00000000000185bc                clear_ctrlc
 .text.search_device
                0x00000000000185d0       0x30 common/built-in.o
                0x00000000000185d0                search_device
 .text.console_assign
                0x0000000000018600       0x48 common/built-in.o
                0x0000000000018600                console_assign
 .text.on_console
                0x0000000000018648       0xc4 common/built-in.o
 .text.console_init_f
                0x000000000001870c       0x10 common/built-in.o
                0x000000000001870c                console_init_f
 .text.console_init_r
                0x000000000001871c      0x150 common/built-in.o
                0x000000000001871c                console_init_r
 .text.sbrk     0x000000000001886c       0x70 common/built-in.o
                0x000000000001886c                sbrk
 .text.mem_malloc_init
                0x00000000000188dc       0x2c common/built-in.o
                0x00000000000188dc                mem_malloc_init
 .text.malloc_trim
                0x0000000000018908       0xcc common/built-in.o
                0x0000000000018908                malloc_trim
 .text.free     0x00000000000189d4      0x228 common/built-in.o
                0x00000000000189d4                free
 .text.malloc   0x0000000000018bfc      0x608 common/built-in.o
                0x0000000000018bfc                malloc
 .text.calloc   0x0000000000019204       0xa4 common/built-in.o
                0x0000000000019204                calloc
 .text.memalign
                0x00000000000192a8      0x10c common/built-in.o
                0x00000000000192a8                memalign
 .text.realloc  0x00000000000193b4      0x40c common/built-in.o
                0x00000000000193b4                realloc
 .text.on_loadaddr
                0x00000000000197c0       0x38 common/built-in.o
 .text.image_check_hcrc
                0x00000000000197f8       0x4c common/built-in.o
                0x00000000000197f8                image_check_hcrc
 .text.image_check_dcrc
                0x0000000000019844       0x38 common/built-in.o
                0x0000000000019844                image_check_dcrc
 .text.image_multi_count
                0x000000000001987c       0x20 common/built-in.o
                0x000000000001987c                image_multi_count
 .text.image_multi_getimg
                0x000000000001989c       0x80 common/built-in.o
                0x000000000001989c                image_multi_getimg
 .text.getenv_bootm_low
                0x000000000001991c       0x28 common/built-in.o
                0x000000000001991c                getenv_bootm_low
 .text.getenv_bootm_size
                0x0000000000019944       0x60 common/built-in.o
                0x0000000000019944                getenv_bootm_size
 .text.getenv_bootm_mapsize
                0x00000000000199a4       0x30 common/built-in.o
                0x00000000000199a4                getenv_bootm_mapsize
 .text.memmove_wd
                0x00000000000199d4        0xc common/built-in.o
                0x00000000000199d4                memmove_wd
 .text.genimg_print_size
                0x00000000000199e0       0x30 common/built-in.o
                0x00000000000199e0                genimg_print_size
 .text.get_table_entry_name
                0x0000000000019a10       0x2c common/built-in.o
                0x0000000000019a10                get_table_entry_name
 .text.genimg_get_os_name
                0x0000000000019a3c       0x18 common/built-in.o
                0x0000000000019a3c                genimg_get_os_name
 .text.genimg_get_arch_name
                0x0000000000019a54       0x18 common/built-in.o
                0x0000000000019a54                genimg_get_arch_name
 .text.genimg_get_type_name
                0x0000000000019a6c       0x18 common/built-in.o
                0x0000000000019a6c                genimg_get_type_name
 .text.genimg_get_comp_name
                0x0000000000019a84       0x18 common/built-in.o
                0x0000000000019a84                genimg_get_comp_name
 .text.image_print_contents
                0x0000000000019a9c      0x170 common/built-in.o
                0x0000000000019a9c                image_print_contents
 .text.genimg_get_kernel_addr_fit
                0x0000000000019c0c       0x24 common/built-in.o
                0x0000000000019c0c                genimg_get_kernel_addr_fit
 .text.genimg_get_format
                0x0000000000019c30       0x38 common/built-in.o
                0x0000000000019c30                genimg_get_format
 .text.genimg_get_image
                0x0000000000019c68        0x4 common/built-in.o
                0x0000000000019c68                genimg_get_image
 .text.genimg_has_config
                0x0000000000019c6c        0x8 common/built-in.o
                0x0000000000019c6c                genimg_has_config
 .text.boot_get_ramdisk
                0x0000000000019c74      0x238 common/built-in.o
                0x0000000000019c74                boot_get_ramdisk
 .text.boot_ramdisk_high
                0x0000000000019eac      0x140 common/built-in.o
                0x0000000000019eac                boot_ramdisk_high
 .text.image_setup_linux
                0x0000000000019fec       0x88 common/built-in.o
                0x0000000000019fec                image_setup_linux
 .text.fdt_error
                0x000000000001a074       0x2c common/built-in.o
 .text.boot_fdt_add_mem_rsv_regions
                0x000000000001a0a0       0x88 common/built-in.o
                0x000000000001a0a0                boot_fdt_add_mem_rsv_regions
 .text.boot_relocate_fdt
                0x000000000001a128      0x194 common/built-in.o
                0x000000000001a128                boot_relocate_fdt
 .text.boot_get_fdt
                0x000000000001a2bc      0x274 common/built-in.o
                0x000000000001a2bc                boot_get_fdt
 .text.ft_verify_fdt
                0x000000000001a530        0x8 common/built-in.o
                0x000000000001a530                ft_verify_fdt
 .text.image_setup_libfdt
                0x000000000001a538       0xe4 common/built-in.o
                0x000000000001a538                image_setup_libfdt
 .text.get_ram_size
                0x000000000001a61c      0x100 common/built-in.o
                0x000000000001a61c                get_ram_size
 .text.get_effective_memsize
                0x000000000001a71c        0x8 common/built-in.o
                0x000000000001a71c                get_effective_memsize
 .text.stdio_serial_tstc
                0x000000000001a724        0x4 common/built-in.o
 .text.stdio_serial_getc
                0x000000000001a728        0x4 common/built-in.o
 .text.stdio_serial_puts
                0x000000000001a72c        0x8 common/built-in.o
 .text.stdio_serial_putc
                0x000000000001a734        0x8 common/built-in.o
 .text.stdio_get_by_name
                0x000000000001a73c       0x50 common/built-in.o
                0x000000000001a73c                stdio_get_by_name
 .text.stdio_clone
                0x000000000001a78c       0x3c common/built-in.o
                0x000000000001a78c                stdio_clone
 .text.stdio_register_dev
                0x000000000001a7c8       0x50 common/built-in.o
                0x000000000001a7c8                stdio_register_dev
 .text.stdio_register
                0x000000000001a818        0x8 common/built-in.o
                0x000000000001a818                stdio_register
 .text.stdio_init_tables
                0x000000000001a820       0x1c common/built-in.o
                0x000000000001a820                stdio_init_tables
 .text.stdio_add_devices
                0x000000000001a83c       0x78 common/built-in.o
                0x000000000001a83c                stdio_add_devices
 .text.rk_fb_vidinfo_to_win
                0x000000000001a8b4       0x40 drivers/built-in.o
                0x000000000001a8b4                rk_fb_vidinfo_to_win
 .text.rk_fb_vidinfo_to_screen
                0x000000000001a8f4       0xc0 drivers/built-in.o
                0x000000000001a8f4                rk_fb_vidinfo_to_screen
 .text.rk_backlight_ctrl
                0x000000000001a9b4        0x4 drivers/built-in.o
                0x000000000001a9b4                rk_backlight_ctrl
 .text.rk_fb_find_lcdc_node_dt
                0x000000000001a9b8       0x9c drivers/built-in.o
                0x000000000001a9b8                rk_fb_find_lcdc_node_dt
 .text.rk_fb_pwr_ctr_parse_dt
                0x000000000001aa54      0x150 drivers/built-in.o
                0x000000000001aa54                rk_fb_pwr_ctr_parse_dt
 .text.rk_fb_pwr_enable
                0x000000000001aba4       0x44 drivers/built-in.o
                0x000000000001aba4                rk_fb_pwr_enable
 .text.rk_fb_parse_dt
                0x000000000001abe8      0x408 drivers/built-in.o
                0x000000000001abe8                rk_fb_parse_dt
 .text.lcd_ctrl_init
                0x000000000001aff0       0x58 drivers/built-in.o
                0x000000000001aff0                lcd_ctrl_init
 .text.lcd_enable
                0x000000000001b048        0x4 drivers/built-in.o
                0x000000000001b048                lcd_enable
 .text.lcd_pandispaly
                0x000000000001b04c        0xc drivers/built-in.o
                0x000000000001b04c                lcd_pandispaly
 .text.lcd_standby
                0x000000000001b058        0x4 drivers/built-in.o
                0x000000000001b058                lcd_standby
 .text.rk_lcdc_set_par
                0x000000000001b05c      0x93c drivers/built-in.o
                0x000000000001b05c                rk_lcdc_set_par
 .text.rk_lcdc_load_screen
                0x000000000001b998      0x590 drivers/built-in.o
                0x000000000001b998                rk_lcdc_load_screen
 .text.rk_lcdc_standby
                0x000000000001bf28       0x84 drivers/built-in.o
                0x000000000001bf28                rk_lcdc_standby
 .text.rk_lcdc_init
                0x000000000001bfac      0x120 drivers/built-in.o
                0x000000000001bfac                rk_lcdc_init
 .text.rk32_edp_enable
                0x000000000001c0cc      0x348 drivers/built-in.o
                0x000000000001c0cc                rk32_edp_enable
 .text.rk32_edp_enable_video_mute
                0x000000000001c414       0x20 drivers/built-in.o
                0x000000000001c414                rk32_edp_enable_video_mute
 .text.rk32_edp_stop_video
                0x000000000001c434       0x18 drivers/built-in.o
                0x000000000001c434                rk32_edp_stop_video
 .text.rk32_edp_init_refclk
                0x000000000001c44c       0x88 drivers/built-in.o
                0x000000000001c44c                rk32_edp_init_refclk
 .text.rk32_edp_init_interrupt
                0x000000000001c4d4       0x74 drivers/built-in.o
                0x000000000001c4d4                rk32_edp_init_interrupt
 .text.rk32_edp_reset
                0x000000000001c548       0xd8 drivers/built-in.o
                0x000000000001c548                rk32_edp_reset
 .text.rk32_edp_get_pll_lock_status
                0x000000000001c620       0x10 drivers/built-in.o
                0x000000000001c620                rk32_edp_get_pll_lock_status
 .text.rk32_edp_analog_power_ctr
                0x000000000001c630       0x34 drivers/built-in.o
                0x000000000001c630                rk32_edp_analog_power_ctr
 .text.rk32_edp_init_analog_func
                0x000000000001c664       0x7c drivers/built-in.o
                0x000000000001c664                rk32_edp_init_analog_func
 .text.rk32_edp_init_hpd
                0x000000000001c6e0       0x30 drivers/built-in.o
                0x000000000001c6e0                rk32_edp_init_hpd
 .text.rk32_edp_reset_aux
                0x000000000001c710       0x18 drivers/built-in.o
                0x000000000001c710                rk32_edp_reset_aux
 .text.rk32_edp_init_aux
                0x000000000001c728       0x3c drivers/built-in.o
                0x000000000001c728                rk32_edp_init_aux
 .text.rk32_edp_enable_sw_function
                0x000000000001c764       0x18 drivers/built-in.o
                0x000000000001c764                rk32_edp_enable_sw_function
 .text.rk32_edp_start_aux_transaction
                0x000000000001c77c       0xf0 drivers/built-in.o
                0x000000000001c77c                rk32_edp_start_aux_transaction
 .text.rk32_edp_read_byte_from_dpcd
                0x000000000001c86c       0x8c drivers/built-in.o
                0x000000000001c86c                rk32_edp_read_byte_from_dpcd
 .text.rk32_edp_set_link_bandwidth
                0x000000000001c8f8       0x18 drivers/built-in.o
                0x000000000001c8f8                rk32_edp_set_link_bandwidth
 .text.rk32_edp_hw_link_training_en
                0x000000000001c910       0x10 drivers/built-in.o
                0x000000000001c910                rk32_edp_hw_link_training_en
 .text.rk32_edp_wait_hw_lt_done
                0x000000000001c920       0x28 drivers/built-in.o
                0x000000000001c920                rk32_edp_wait_hw_lt_done
 .text.rk32_edp_get_hw_lt_status
                0x000000000001c948       0x10 drivers/built-in.o
                0x000000000001c948                rk32_edp_get_hw_lt_status
 .text.rk32_edp_set_lane_count
                0x000000000001c958        0xc drivers/built-in.o
                0x000000000001c958                rk32_edp_set_lane_count
 .text.rk32_edp_reset_macro
                0x000000000001c964        0x4 drivers/built-in.o
                0x000000000001c964                rk32_edp_reset_macro
 .text.rk32_edp_init_video
                0x000000000001c968       0x38 drivers/built-in.o
                0x000000000001c968                rk32_edp_init_video
 .text.rk32_edp_set_video_color_format
                0x000000000001c9a0       0x34 drivers/built-in.o
                0x000000000001c9a0                rk32_edp_set_video_color_format
 .text.rk32_edp_is_slave_video_stream_clock_on
                0x000000000001c9d4       0x58 drivers/built-in.o
                0x000000000001c9d4                rk32_edp_is_slave_video_stream_clock_on
 .text.rk32_edp_set_video_cr_mn
                0x000000000001ca2c       0x94 drivers/built-in.o
                0x000000000001ca2c                rk32_edp_set_video_cr_mn
 .text.rk32_edp_set_video_timing_mode
                0x000000000001cac0       0x20 drivers/built-in.o
                0x000000000001cac0                rk32_edp_set_video_timing_mode
 .text.rk32_edp_enable_video_master
                0x000000000001cae0        0x4 drivers/built-in.o
                0x000000000001cae0                rk32_edp_enable_video_master
 .text.rk32_edp_start_video
                0x000000000001cae4       0x18 drivers/built-in.o
                0x000000000001cae4                rk32_edp_start_video
 .text.rk32_edp_is_video_stream_on
                0x000000000001cafc       0x28 drivers/built-in.o
                0x000000000001cafc                rk32_edp_is_video_stream_on
 .text.rk32_edp_config_video_slave_mode
                0x000000000001cb24       0x6c drivers/built-in.o
                0x000000000001cb24                rk32_edp_config_video_slave_mode
 .text.rk_mipi_screen_pwr_enable
                0x000000000001cb90       0x94 drivers/built-in.o
 .text.rk_mipi_screen
                0x000000000001cc24      0x2f4 drivers/built-in.o
                0x000000000001cc24                rk_mipi_screen
 .text.rk_mipi_screen_standby
                0x000000000001cf18      0x180 drivers/built-in.o
                0x000000000001cf18                rk_mipi_screen_standby
 .text.rk_mipi_get_dsi_num
                0x000000000001d098       0x14 drivers/built-in.o
                0x000000000001d098                rk_mipi_get_dsi_num
 .text.rk_mipi_get_dsi_lane
                0x000000000001d0ac       0x14 drivers/built-in.o
                0x000000000001d0ac                rk_mipi_get_dsi_lane
 .text.rk_mipi_get_dsi_clk
                0x000000000001d0c0       0x14 drivers/built-in.o
                0x000000000001d0c0                rk_mipi_get_dsi_clk
 .text.rk_mipi_screen_probe
                0x000000000001d0d4      0x360 drivers/built-in.o
                0x000000000001d0d4                rk_mipi_screen_probe
 .text.rk32_dsi_set_bits
                0x000000000001d434       0x9c drivers/built-in.o
 .text.rk32_mipi_dsi_is_enable
                0x000000000001d4d0       0x18 drivers/built-in.o
 .text.rk32_mipi_dsi_enable_hs_clk
                0x000000000001d4e8       0x18 drivers/built-in.o
 .text.rk32_mipi_dsi_enable_command_mode
                0x000000000001d500       0x18 drivers/built-in.o
 .text.rk32_mipi_dsi_enable_video_mode
                0x000000000001d518       0x20 drivers/built-in.o
 .text.rk32_mipi_dsi_read_dcs_packet
                0x000000000001d538       0x5c drivers/built-in.o
 .text.rk32_dwc_phy_test_wr.constprop.1
                0x000000000001d594       0x80 drivers/built-in.o
 .text.rk32_mipi_dsi_host_power_up
                0x000000000001d614       0xd0 drivers/built-in.o
 .text.rk32_mipi_dsi_get_id
                0x000000000001d6e4        0xc drivers/built-in.o
 .text.rk32_mipi_dsi_is_active
                0x000000000001d6f0       0x10 drivers/built-in.o
 .text.rk32_mipi_dsi_send_packet
                0x000000000001d700      0x3dc drivers/built-in.o
 .text.rk32_mipi_dsi_clk_enable
                0x000000000001dadc       0x2c drivers/built-in.o
                0x000000000001dadc                rk32_mipi_dsi_clk_enable
 .text.rk32_phy_power_up
                0x000000000001db08       0xc8 drivers/built-in.o
 .text.rk_mipi_dsi_init
                0x000000000001dbd0      0xc78 drivers/built-in.o
 .text.rk32_mipi_dsi_power_up
                0x000000000001e848       0x1c drivers/built-in.o
 .text.rk32_mipi_dsi_clk_disable
                0x000000000001e864       0x3c drivers/built-in.o
                0x000000000001e864                rk32_mipi_dsi_clk_disable
 .text.rk32_mipi_dsi_power_down
                0x000000000001e8a0       0x80 drivers/built-in.o
 .text.rk32_dsi_sync
                0x000000000001e920       0x78 drivers/built-in.o
                0x000000000001e920                rk32_dsi_sync
 .text.rk32_dsi_disable
                0x000000000001e998       0x50 drivers/built-in.o
                0x000000000001e998                rk32_dsi_disable
 .text.rk32_dsi_enable
                0x000000000001e9e8       0xcc drivers/built-in.o
                0x000000000001e9e8                rk32_dsi_enable
 .text.rk_dsi_host_parse_dt
                0x000000000001eab4       0x88 drivers/built-in.o
                0x000000000001eab4                rk_dsi_host_parse_dt
 .text.rk32_mipi_enable
                0x000000000001eb3c      0x2d4 drivers/built-in.o
                0x000000000001eb3c                rk32_mipi_enable
 .text.register_dsi_ops
                0x000000000001ee10       0x1c drivers/built-in.o
                0x000000000001ee10                register_dsi_ops
 .text.dsi_probe_current_chip
                0x000000000001ee2c       0x8c drivers/built-in.o
                0x000000000001ee2c                dsi_probe_current_chip
 .text.dsi_power_off
                0x000000000001eeb8       0x44 drivers/built-in.o
                0x000000000001eeb8                dsi_power_off
 .text.dsi_init
                0x000000000001eefc       0x44 drivers/built-in.o
                0x000000000001eefc                dsi_init
 .text.dsi_enable_video_mode
                0x000000000001ef40       0x44 drivers/built-in.o
                0x000000000001ef40                dsi_enable_video_mode
 .text.dsi_enable_command_mode
                0x000000000001ef84       0x44 drivers/built-in.o
                0x000000000001ef84                dsi_enable_command_mode
 .text.dsi_enable_hs_clk
                0x000000000001efc8       0x44 drivers/built-in.o
                0x000000000001efc8                dsi_enable_hs_clk
 .text.dsi_is_active
                0x000000000001f00c       0x48 drivers/built-in.o
                0x000000000001f00c                dsi_is_active
 .text.dsi_is_enable
                0x000000000001f054       0x44 drivers/built-in.o
                0x000000000001f054                dsi_is_enable
 .text.dsi_send_packet
                0x000000000001f098       0x44 drivers/built-in.o
                0x000000000001f098                dsi_send_packet
 .text.rk_gpio_id_to_bank
                0x000000000001f0dc       0x38 drivers/gpio/built-in.o
                0x000000000001f0dc                rk_gpio_id_to_bank
 .text.rk_gpio_get_bank
                0x000000000001f114       0x30 drivers/gpio/built-in.o
                0x000000000001f114                rk_gpio_get_bank
 .text.rk_gpio_base_to_bank
                0x000000000001f144       0x34 drivers/gpio/built-in.o
                0x000000000001f144                rk_gpio_base_to_bank
 .text.rk_gpio_irq_to_gpio
                0x000000000001f178       0x44 drivers/gpio/built-in.o
                0x000000000001f178                rk_gpio_irq_to_gpio
 .text.gpio_direction_input
                0x000000000001f1bc       0x48 drivers/gpio/built-in.o
                0x000000000001f1bc                gpio_direction_input
 .text.gpio_direction_output
                0x000000000001f204       0x64 drivers/gpio/built-in.o
                0x000000000001f204                gpio_direction_output
 .text.gpio_get_value
                0x000000000001f268       0x48 drivers/gpio/built-in.o
                0x000000000001f268                gpio_get_value
 .text.gpio_set_value
                0x000000000001f2b0       0x58 drivers/gpio/built-in.o
                0x000000000001f2b0                gpio_set_value
 .text.rk_i2c_send_start_bit
                0x000000000001f308       0x88 drivers/i2c/built-in.o
 .text.rk_i2c_send_stop_bit
                0x000000000001f390       0x88 drivers/i2c/built-in.o
 .text.rk_i2c_write
                0x000000000001f418      0x1b4 drivers/i2c/built-in.o
 .text.rk_i2c_set_clk.part.1
                0x000000000001f5cc       0x6c drivers/i2c/built-in.o
 .text.i2c_set_bus_num
                0x000000000001f638       0x34 drivers/i2c/built-in.o
                0x000000000001f638                i2c_set_bus_num
 .text.i2c_read
                0x000000000001f66c      0x244 drivers/i2c/built-in.o
                0x000000000001f66c                i2c_read
 .text.i2c_write
                0x000000000001f8b0       0xa4 drivers/i2c/built-in.o
                0x000000000001f8b0                i2c_write
 .text.i2c_probe
                0x000000000001f954       0x6c drivers/i2c/built-in.o
                0x000000000001f954                i2c_probe
 .text.i2c_init
                0x000000000001f9c0       0x70 drivers/i2c/built-in.o
                0x000000000001f9c0                i2c_init
 .text.i2c_set_bus_speed
                0x000000000001fa30       0x6c drivers/i2c/built-in.o
                0x000000000001fa30                i2c_set_bus_speed
 .text.i2c_get_bus_num_fdt
                0x000000000001fa9c       0x48 drivers/i2c/built-in.o
                0x000000000001fa9c                i2c_get_bus_num_fdt
 .text.check_reg
                0x000000000001fae4       0x2c drivers/power/built-in.o
                0x000000000001fae4                check_reg
 .text.pmic_alloc
                0x000000000001fb10       0x58 drivers/power/built-in.o
                0x000000000001fb10                pmic_alloc
 .text.pmic_get
                0x000000000001fb68       0x54 drivers/power/built-in.o
                0x000000000001fb68                pmic_get
 .text.power_get_interface
                0x000000000001fbbc       0x2c drivers/power/built-in.o
                0x000000000001fbbc                power_get_interface
 .text.do_pmic  0x000000000001fbe8      0x2dc drivers/power/built-in.o
                0x000000000001fbe8                do_pmic
 .text.fdt_regulator_match
                0x000000000001fec4      0x100 drivers/power/built-in.o
                0x000000000001fec4                fdt_regulator_match
 .text.fdt_get_regulator_node
                0x000000000001ffc4       0x10 drivers/power/built-in.o
                0x000000000001ffc4                fdt_get_regulator_node
 .text.fdt_get_i2c_info
                0x000000000001ffd4       0x64 drivers/power/built-in.o
                0x000000000001ffd4                fdt_get_i2c_info
 .text.get_power_bat_status
                0x0000000000020038       0x6c drivers/power/built-in.o
                0x0000000000020038                get_power_bat_status
 .text.is_charging
                0x00000000000200a4       0x34 drivers/power/built-in.o
                0x00000000000200a4                is_charging
 .text.is_power_low
                0x00000000000200d8       0x70 drivers/power/built-in.o
                0x00000000000200d8                is_power_low
 .text.is_power_extreme_low
                0x0000000000020148       0x2c drivers/power/built-in.o
                0x0000000000020148                is_power_extreme_low
 .text.pmic_init
                0x0000000000020174      0x134 drivers/power/built-in.o
                0x0000000000020174                pmic_init
 .text.fg_init  0x00000000000202a8       0x24 drivers/power/built-in.o
                0x00000000000202a8                fg_init
 .text.shut_down
                0x00000000000202cc       0x58 drivers/power/built-in.o
                0x00000000000202cc                shut_down
 .text.pmic_reg_write
                0x0000000000020324       0xe0 drivers/power/built-in.o
                0x0000000000020324                pmic_reg_write
 .text.pmic_reg_read
                0x0000000000020404      0x108 drivers/power/built-in.o
                0x0000000000020404                pmic_reg_read
 .text.grf_uoc_get_field
                0x000000000002050c       0x24 drivers/power/charge/built-in.o
 .text.grf_uoc_set_field
                0x0000000000020530       0x50 drivers/power/charge/built-in.o
 .text.dwc_otg_check_dpdm
                0x0000000000020580      0x8d4 drivers/power/charge/built-in.o
                0x0000000000020580                dwc_otg_check_dpdm
 .text.cw201x_check_battery
                0x0000000000020e54       0x50 drivers/power/fuel_gauge/built-in.o
 .text.cw_read_word.constprop.0
                0x0000000000020ea4       0x50 drivers/power/fuel_gauge/built-in.o
 .text.cw201x_update_battery
                0x0000000000020ef4      0x134 drivers/power/fuel_gauge/built-in.o
 .text.fg_cw201x_init
                0x0000000000021028      0x1cc drivers/power/fuel_gauge/built-in.o
                0x0000000000021028                fg_cw201x_init
 .text.ricoh619_chrg_det.isra.0
                0x00000000000211f4       0x48 drivers/power/fuel_gauge/built-in.o
 .text.ricoh619_check_battery
                0x000000000002123c       0x20 drivers/power/fuel_gauge/built-in.o
 .text.read_pmu_reg
                0x000000000002125c       0x30 drivers/power/fuel_gauge/built-in.o
                0x000000000002125c                read_pmu_reg
 .text.ricoh619_get_voltage
                0x000000000002128c      0x230 drivers/power/fuel_gauge/built-in.o
                0x000000000002128c                ricoh619_get_voltage
 .text.get_capcity
                0x00000000000214bc       0xe8 drivers/power/fuel_gauge/built-in.o
                0x00000000000214bc                get_capcity
 .text.ricoh619_update_battery
                0x00000000000215a4      0x264 drivers/power/fuel_gauge/built-in.o
 .text.fg_ricoh619_init
                0x0000000000021808       0xac drivers/power/fuel_gauge/built-in.o
                0x0000000000021808                fg_ricoh619_init
 .text.rk81x_bat_read
                0x00000000000218b4       0x40 drivers/power/fuel_gauge/built-in.o
 .text.rk81x_bat_write.isra.1
                0x00000000000218f4       0x38 drivers/power/fuel_gauge/built-in.o
 .text.rk81x_bat_capacity_init.isra.12
                0x000000000002192c       0x40 drivers/power/fuel_gauge/built-in.o
 .text.rk81x_bat_get_realtime_cap.isra.13
                0x000000000002196c       0x68 drivers/power/fuel_gauge/built-in.o
 .text.is_rk81x_bat_exist.isra.15
                0x00000000000219d4       0x1c drivers/power/fuel_gauge/built-in.o
 .text.rk81x_bat_set_chrg_current.isra.16
                0x00000000000219f0       0x34 drivers/power/fuel_gauge/built-in.o
 .text.rk81x_bat_get_chrg_status.isra.19
                0x0000000000021a24       0x78 drivers/power/fuel_gauge/built-in.o
 .text.rk81x_bat_get_avg_current.isra.21
                0x0000000000021a9c       0x54 drivers/power/fuel_gauge/built-in.o
 .text.rk81x_bat_get_fcc.constprop.46
                0x0000000000021af0       0x80 drivers/power/fuel_gauge/built-in.o
 .text.ab_div_c.constprop.48
                0x0000000000021b70       0x48 drivers/power/fuel_gauge/built-in.o
 .text.rk81x_bat_vol_to_cap.constprop.47
                0x0000000000021bb8       0xcc drivers/power/fuel_gauge/built-in.o
 .text.rk81x_bat_get_vol.constprop.52
                0x0000000000021c84       0x54 drivers/power/fuel_gauge/built-in.o
 .text.rk81x_bat_get_ocv_vol.constprop.53
                0x0000000000021cd8       0x58 drivers/power/fuel_gauge/built-in.o
 .text.rk81x_bat_get_rsoc.constprop.55
                0x0000000000021d30       0x40 drivers/power/fuel_gauge/built-in.o
 .text.rk81x_bat_clr_bit.isra.2.constprop.62
                0x0000000000021d70       0x30 drivers/power/fuel_gauge/built-in.o
 .text.rk81x_bat_get_charger_type.constprop.34
                0x0000000000021da0      0x118 drivers/power/fuel_gauge/built-in.o
 .text.rk81x_batttery_update
                0x0000000000021eb8      0x51c drivers/power/fuel_gauge/built-in.o
 .text.rk81x_batttery_check
                0x00000000000223d4       0x20 drivers/power/fuel_gauge/built-in.o
 .text.is_rk81x_fg_init
                0x00000000000223f4       0x10 drivers/power/fuel_gauge/built-in.o
                0x00000000000223f4                is_rk81x_fg_init
 .text.fg_rk818_init
                0x0000000000022404      0xbe0 drivers/power/fuel_gauge/built-in.o
                0x0000000000022404                fg_rk818_init
 .text.pmic_rk808_charger_setting
                0x0000000000022fe4       0xd0 drivers/power/pmic/built-in.o
                0x0000000000022fe4                pmic_rk808_charger_setting
 .text.charger_init
                0x00000000000230b4       0x18 drivers/power/pmic/built-in.o
                0x00000000000230b4                charger_init
 .text.rk808_regulator_enable
                0x00000000000230cc       0xf0 drivers/power/pmic/built-in.o
                0x00000000000230cc                rk808_regulator_enable
 .text.pmic_rk808_init
                0x00000000000231bc      0x4b0 drivers/power/pmic/built-in.o
                0x00000000000231bc                pmic_rk808_init
 .text.pmic_rk808_shut_down
                0x000000000002366c       0x50 drivers/power/pmic/built-in.o
                0x000000000002366c                pmic_rk808_shut_down
 .text.rk818_regulator_enable
                0x00000000000236bc       0xf0 drivers/power/pmic/built-in.o
                0x00000000000236bc                rk818_regulator_enable
 .text.pmic_rk818_init
                0x00000000000237ac      0x540 drivers/power/pmic/built-in.o
                0x00000000000237ac                pmic_rk818_init
 .text.pmic_rk818_shut_down
                0x0000000000023cec       0x8c drivers/power/pmic/built-in.o
                0x0000000000023cec                pmic_rk818_shut_down
 .text.act8846_set_bits
                0x0000000000023d78       0x74 drivers/power/pmic/built-in.o
 .text.act8846_regulator_set
                0x0000000000023dec       0xc0 drivers/power/pmic/built-in.o
                0x0000000000023dec                act8846_regulator_set
 .text.pmic_act8846_init
                0x0000000000023eac      0x1bc drivers/power/pmic/built-in.o
                0x0000000000023eac                pmic_act8846_init
 .text.pmic_act8846_shut_down
                0x0000000000024068       0x2c drivers/power/pmic/built-in.o
                0x0000000000024068                pmic_act8846_shut_down
 .text.ricoh619_parse_dt
                0x0000000000024094      0x148 drivers/power/pmic/built-in.o
                0x0000000000024094                ricoh619_parse_dt
 .text.pmic_ricoh619_init
                0x00000000000241dc      0x1b0 drivers/power/pmic/built-in.o
                0x00000000000241dc                pmic_ricoh619_init
 .text.pmic_ricoh619_shut_down
                0x000000000002438c      0x10c drivers/power/pmic/built-in.o
                0x000000000002438c                pmic_ricoh619_shut_down
 .text.serial_stub_start
                0x0000000000024498       0x14 drivers/serial/built-in.o
 .text.serial_stub_stop
                0x00000000000244ac       0x14 drivers/serial/built-in.o
 .text.serial_stub_putc
                0x00000000000244c0       0x18 drivers/serial/built-in.o
 .text.serial_stub_puts
                0x00000000000244d8       0x18 drivers/serial/built-in.o
 .text.serial_stub_getc
                0x00000000000244f0       0x14 drivers/serial/built-in.o
                0x00000000000244f0                serial_stub_getc
 .text.serial_stub_tstc
                0x0000000000024504       0x14 drivers/serial/built-in.o
                0x0000000000024504                serial_stub_tstc
 .text.get_current
                0x0000000000024518       0x3c drivers/serial/built-in.o
 .text.serial_null
                0x0000000000024554        0x4 drivers/serial/built-in.o
                0x0000000000024554                rk30_serial_initialize
 .text.serial_stdio_init
                0x0000000000024558       0xa8 drivers/serial/built-in.o
                0x0000000000024558                serial_stdio_init
 .text.serial_assign
                0x0000000000024600       0x50 drivers/serial/built-in.o
                0x0000000000024600                serial_assign
 .text.serial_initialize
                0x0000000000024650       0x14 drivers/serial/built-in.o
                0x0000000000024650                serial_initialize
 .text.serial_init
                0x0000000000024664       0x20 drivers/serial/built-in.o
                0x0000000000024664                serial_init
 .text.serial_setbrg
                0x0000000000024684       0x14 drivers/serial/built-in.o
                0x0000000000024684                serial_setbrg
 .text.on_baudrate
                0x0000000000024698       0xf0 drivers/serial/built-in.o
 .text.serial_getc
                0x0000000000024788       0x14 drivers/serial/built-in.o
                0x0000000000024788                serial_getc
 .text.serial_tstc
                0x000000000002479c       0x14 drivers/serial/built-in.o
                0x000000000002479c                serial_tstc
 .text.serial_putc
                0x00000000000247b0       0x1c drivers/serial/built-in.o
                0x00000000000247b0                serial_putc
 .text.serial_puts
                0x00000000000247cc       0x1c drivers/serial/built-in.o
                0x00000000000247cc                serial_puts
 .text.default_serial_puts
                0x00000000000247e8       0x30 drivers/serial/built-in.o
                0x00000000000247e8                default_serial_puts
 .text.rk_serial_tstc
                0x0000000000024818       0x14 drivers/serial/built-in.o
 .text.rk_serial_setbrg
                0x000000000002482c       0x5c drivers/serial/built-in.o
 .text.rk_serial_getc
                0x0000000000024888       0x3c drivers/serial/built-in.o
 .text.rk_serial_putc
                0x00000000000248c4       0x38 drivers/serial/built-in.o
 .text.rk_serial_init
                0x00000000000248fc       0xc4 drivers/serial/built-in.o
 .text.default_serial_console
                0x00000000000249c0        0xc drivers/serial/built-in.o
                0x00000000000249c0                default_serial_console
 .text.usbd_get_string
                0x00000000000249cc       0x28 drivers/usb/gadget/built-in.o
                0x00000000000249cc                usbd_get_string
 .text.usbd_device_device_descriptor
                0x00000000000249f4        0x8 drivers/usb/gadget/built-in.o
                0x00000000000249f4                usbd_device_device_descriptor
 .text.usbd_device_configuration_descriptor
                0x00000000000249fc       0x28 drivers/usb/gadget/built-in.o
                0x00000000000249fc                usbd_device_configuration_descriptor
 .text.usbd_endpoint_halted
                0x0000000000024a24       0x14 drivers/usb/gadget/built-in.o
                0x0000000000024a24                usbd_endpoint_halted
 .text.usbd_rcv_complete
                0x0000000000024a38       0x98 drivers/usb/gadget/built-in.o
                0x0000000000024a38                usbd_rcv_complete
 .text.urb_link_init
                0x0000000000024ad0       0x10 drivers/usb/gadget/built-in.o
                0x0000000000024ad0                urb_link_init
 .text.urb_detach
                0x0000000000024ae0       0x24 drivers/usb/gadget/built-in.o
                0x0000000000024ae0                urb_detach
 .text.first_urb_link
                0x0000000000024b04       0x28 drivers/usb/gadget/built-in.o
                0x0000000000024b04                first_urb_link
 .text.first_urb
                0x0000000000024b2c       0x14 drivers/usb/gadget/built-in.o
                0x0000000000024b2c                first_urb
 .text.first_urb_detached
                0x0000000000024b40       0x1c drivers/usb/gadget/built-in.o
                0x0000000000024b40                first_urb_detached
 .text.urb_append
                0x0000000000024b5c       0x2c drivers/usb/gadget/built-in.o
                0x0000000000024b5c                urb_append
 .text.usbd_alloc_urb
                0x0000000000024b88       0x70 drivers/usb/gadget/built-in.o
                0x0000000000024b88                usbd_alloc_urb
 .text.usbd_tx_complete
                0x0000000000024bf8       0xac drivers/usb/gadget/built-in.o
                0x0000000000024bf8                usbd_tx_complete
 .text.usbd_device_event_irq
                0x0000000000024ca4      0x10c drivers/usb/gadget/built-in.o
                0x0000000000024ca4                usbd_device_event_irq
 .text.copy_config
                0x0000000000024db0       0x50 drivers/usb/gadget/built-in.o
                0x0000000000024db0                copy_config
 .text.ep0_recv_setup
                0x0000000000024e00      0x3b8 drivers/usb/gadget/built-in.o
                0x0000000000024e00                ep0_recv_setup
 .text.ReadEndpoint0
                0x00000000000251b8       0x50 drivers/usb/gadget/built-in.o
 .text.ReadBulkEndpoint
                0x0000000000025208       0x7c drivers/usb/gadget/built-in.o
 .text.udc_state_transition
                0x0000000000025284      0x12c drivers/usb/gadget/built-in.o
 .text.WriteEndpoint0
                0x00000000000253b0       0x54 drivers/usb/gadget/built-in.o
 .text.ControlInPacket
                0x0000000000025404       0x80 drivers/usb/gadget/built-in.o
 .text.WriteBulkEndpoint
                0x0000000000025484       0x74 drivers/usb/gadget/built-in.o
 .text.dwc_otg_write_data
                0x00000000000254f8       0x34 drivers/usb/gadget/built-in.o
 .text.dwc_otg_epn_in_ack
                0x000000000002552c       0x2c drivers/usb/gadget/built-in.o
 .text.udc_stall_ep.constprop.1
                0x0000000000025558       0x24 drivers/usb/gadget/built-in.o
 .text.GetVbus  0x000000000002557c       0x54 drivers/usb/gadget/built-in.o
                0x000000000002557c                GetVbus
 .text.UsbConnectStatus
                0x00000000000255d0       0x10 drivers/usb/gadget/built-in.o
                0x00000000000255d0                UsbConnectStatus
 .text.UdcInit  0x00000000000255e0      0x1ac drivers/usb/gadget/built-in.o
                0x00000000000255e0                UdcInit
 .text.HaltBulkEndpoint
                0x000000000002578c      0x1ec drivers/usb/gadget/built-in.o
                0x000000000002578c                HaltBulkEndpoint
 .text.clear_feature
                0x0000000000025978       0xac drivers/usb/gadget/built-in.o
                0x0000000000025978                clear_feature
 .text.udc_irq  0x0000000000025a24      0x754 drivers/usb/gadget/built-in.o
                0x0000000000025a24                udc_irq
 .text.suspend_usb
                0x0000000000026178       0x14 drivers/usb/gadget/built-in.o
                0x0000000000026178                suspend_usb
 .text.resume_usb
                0x000000000002618c       0x54 drivers/usb/gadget/built-in.o
                0x000000000002618c                resume_usb
 .text.udc_endpoint_write
                0x00000000000261e0       0x64 drivers/usb/gadget/built-in.o
                0x00000000000261e0                udc_endpoint_write
 .text.udc_init
                0x0000000000026244       0x44 drivers/usb/gadget/built-in.o
                0x0000000000026244                udc_init
 .text.is_usbd_high_speed
                0x0000000000026288       0x1c drivers/usb/gadget/built-in.o
                0x0000000000026288                is_usbd_high_speed
 .text.udc_connect
                0x00000000000262a4       0x58 drivers/usb/gadget/built-in.o
                0x00000000000262a4                udc_connect
 .text.udc_disconnect
                0x00000000000262fc       0x28 drivers/usb/gadget/built-in.o
                0x00000000000262fc                udc_disconnect
 .text.udc_enable
                0x0000000000026324       0x38 drivers/usb/gadget/built-in.o
                0x0000000000026324                udc_enable
 .text.udc_startup_events
                0x000000000002635c       0x30 drivers/usb/gadget/built-in.o
                0x000000000002635c                udc_startup_events
 .text.fdtdec_get_int
                0x000000000002638c       0x34 lib/built-in.o
                0x000000000002638c                fdtdec_get_int
 .text.get_prop_check_min_len
                0x00000000000263c0       0x38 lib/built-in.o
 .text.fdtdec_get_addr_size
                0x00000000000263f8       0x58 lib/built-in.o
                0x00000000000263f8                fdtdec_get_addr_size
 .text.fdtdec_get_addr
                0x0000000000026450        0x8 lib/built-in.o
                0x0000000000026450                fdtdec_get_addr
 .text.fdtdec_next_compatible
                0x0000000000026458       0x10 lib/built-in.o
                0x0000000000026458                fdtdec_next_compatible
 .text.fdtdec_get_int_array
                0x0000000000026468       0x64 lib/built-in.o
                0x0000000000026468                fdtdec_get_int_array
 .text.fdtdec_decode_gpios
                0x00000000000264cc      0x148 lib/built-in.o
                0x00000000000264cc                fdtdec_decode_gpios
 .text.fdtdec_decode_gpio
                0x0000000000026614       0x2c lib/built-in.o
                0x0000000000026614                fdtdec_decode_gpio
 .text.initcall_run_list
                0x0000000000026640       0x64 lib/built-in.o
                0x0000000000026640                initcall_run_list
 .text.lmb_add_region
                0x00000000000266a4      0x1d0 lib/built-in.o
 .text.lmb_init
                0x0000000000026874       0x28 lib/built-in.o
                0x0000000000026874                lmb_init
 .text.lmb_add  0x000000000002689c        0x4 lib/built-in.o
                0x000000000002689c                lmb_add
 .text.lmb_free
                0x00000000000268a0      0x10c lib/built-in.o
                0x00000000000268a0                lmb_free
 .text.lmb_reserve
                0x00000000000269ac        0x8 lib/built-in.o
                0x00000000000269ac                lmb_reserve
 .text.__lmb_alloc_base
                0x00000000000269b4      0x178 lib/built-in.o
                0x00000000000269b4                __lmb_alloc_base
 .text.lmb_alloc_base
                0x0000000000026b2c       0x34 lib/built-in.o
                0x0000000000026b2c                lmb_alloc_base
 .text.lmb_alloc
                0x0000000000026b60        0x8 lib/built-in.o
                0x0000000000026b60                lmb_alloc
 .text.qsort    0x0000000000026b68       0xe0 lib/built-in.o
                0x0000000000026b68                qsort
 .text.cmpkey   0x0000000000026c48       0x14 lib/built-in.o
 .text._hdelete.isra.1
                0x0000000000026c5c       0x50 lib/built-in.o
 .text.drop_var_from_set.part.2
                0x0000000000026cac       0x50 lib/built-in.o
 .text.match_string.isra.3
                0x0000000000026cfc       0x64 lib/built-in.o
 .text.hcreate_r
                0x0000000000026d60       0xb4 lib/built-in.o
                0x0000000000026d60                hcreate_r
 .text.hdestroy_r
                0x0000000000026e14       0x78 lib/built-in.o
                0x0000000000026e14                hdestroy_r
 .text.hsearch_r
                0x0000000000026e8c      0x498 lib/built-in.o
                0x0000000000026e8c                hsearch_r
 .text.hdelete_r
                0x0000000000027324       0xd4 lib/built-in.o
                0x0000000000027324                hdelete_r
 .text.hexport_r
                0x00000000000273f8      0x32c lib/built-in.o
                0x00000000000273f8                hexport_r
 .text.himport_r
                0x0000000000027724      0x3d8 lib/built-in.o
                0x0000000000027724                himport_r
 .text.hwalk_r  0x0000000000027afc       0x60 lib/built-in.o
                0x0000000000027afc                hwalk_r
 .text.display_options
                0x0000000000027b5c       0x20 lib/built-in.o
                0x0000000000027b5c                display_options
 .text.print_size
                0x0000000000027b7c      0x138 lib/built-in.o
                0x0000000000027b7c                print_size
 .text.crc32    0x0000000000027cb4       0x28 lib/built-in.o
                0x0000000000027cb4                crc32
 .text.crc32_wd
                0x0000000000027cdc        0x4 lib/built-in.o
                0x0000000000027cdc                crc32_wd
 .text.__div64_32
                0x0000000000027ce0       0xdc lib/built-in.o
                0x0000000000027ce0                __div64_32
 .text.hang     0x0000000000027dbc       0x1c lib/built-in.o
                0x0000000000027dbc                hang
 .text.skip_spaces
                0x0000000000027dd8       0x30 lib/built-in.o
                0x0000000000027dd8                skip_spaces
 .text.strim    0x0000000000027e08       0x68 lib/built-in.o
                0x0000000000027e08                strim
 .text.strcpy   0x0000000000027e70       0x1c lib/built-in.o
                0x0000000000027e70                strcpy
 .text.strncpy  0x0000000000027e8c       0x24 lib/built-in.o
                0x0000000000027e8c                strncpy
 .text.strcat   0x0000000000027eb0       0x30 lib/built-in.o
                0x0000000000027eb0                strcat
 .text.strncat  0x0000000000027ee0       0x54 lib/built-in.o
                0x0000000000027ee0                strncat
 .text.strcmp   0x0000000000027f34       0x2c lib/built-in.o
                0x0000000000027f34                strcmp
 .text.strncmp  0x0000000000027f60       0x40 lib/built-in.o
                0x0000000000027f60                strncmp
 .text.strchr   0x0000000000027fa0       0x34 lib/built-in.o
                0x0000000000027fa0                strchr
 .text.strlen   0x0000000000027fd4       0x20 lib/built-in.o
                0x0000000000027fd4                strlen
 .text.strnlen  0x0000000000027ff4       0x30 lib/built-in.o
                0x0000000000027ff4                strnlen
 .text.strdup   0x0000000000028024       0x38 lib/built-in.o
                0x0000000000028024                strdup
 .text.strspn   0x000000000002805c       0x48 lib/built-in.o
                0x000000000002805c                strspn
 .text.strpbrk  0x00000000000280a4       0x3c lib/built-in.o
                0x00000000000280a4                strpbrk
 .text.strtok   0x00000000000280e0       0x7c lib/built-in.o
                0x00000000000280e0                strtok
 .text.memset   0x000000000002815c       0x6c lib/built-in.o
                0x000000000002815c                memset
 .text.memcpy   0x00000000000281c8       0x68 lib/built-in.o
                0x00000000000281c8                memcpy
 .text.memmove  0x0000000000028230       0x60 lib/built-in.o
                0x0000000000028230                memmove
 .text.memcmp   0x0000000000028290       0x34 lib/built-in.o
                0x0000000000028290                memcmp
 .text.strstr   0x00000000000282c4       0x64 lib/built-in.o
                0x00000000000282c4                strstr
 .text.memchr   0x0000000000028328       0x30 lib/built-in.o
                0x0000000000028328                memchr
 .text.udelay   0x0000000000028358       0x30 lib/built-in.o
                0x0000000000028358                udelay
 .text.mdelay   0x0000000000028388       0x24 lib/built-in.o
                0x0000000000028388                mdelay
 .text.put_dec  0x00000000000283ac      0x1f0 lib/built-in.o
 .text.number   0x000000000002859c      0x2c0 lib/built-in.o
 .text.vsnprintf_internal
                0x000000000002885c      0x54c lib/built-in.o
 .text.simple_strtoul
                0x0000000000028da8       0xd0 lib/built-in.o
                0x0000000000028da8                simple_strtoul
 .text.strict_strtoul
                0x0000000000028e78       0x78 lib/built-in.o
                0x0000000000028e78                strict_strtoul
 .text.simple_strtol
                0x0000000000028ef0       0x28 lib/built-in.o
                0x0000000000028ef0                simple_strtol
 .text.simple_strtoull
                0x0000000000028f18       0xfc lib/built-in.o
                0x0000000000028f18                simple_strtoull
 .text.vscnprintf
                0x0000000000029014       0x24 lib/built-in.o
                0x0000000000029014                vscnprintf
 .text.snprintf
                0x0000000000029038       0x24 lib/built-in.o
                0x0000000000029038                snprintf
 .text.vsprintf
                0x000000000002905c       0x14 lib/built-in.o
                0x000000000002905c                vsprintf
 .text.sprintf  0x0000000000029070       0x24 lib/built-in.o
                0x0000000000029070                sprintf
 .text.panic    0x0000000000029094       0x44 lib/built-in.o
                0x0000000000029094                panic
 .text.simple_itoa
                0x00000000000290d8       0x58 lib/built-in.o
                0x00000000000290d8                simple_itoa
 .text.fdt_check_header
                0x0000000000029130       0x78 lib/libfdt/built-in.o
                0x0000000000029130                fdt_check_header
 .text.fdt_offset_ptr
                0x00000000000291a8       0x4c lib/libfdt/built-in.o
                0x00000000000291a8                fdt_offset_ptr
 .text.fdt_next_tag
                0x00000000000291f4       0xf8 lib/libfdt/built-in.o
                0x00000000000291f4                fdt_next_tag
 .text._fdt_check_node_offset
                0x00000000000292ec       0x38 lib/libfdt/built-in.o
                0x00000000000292ec                _fdt_check_node_offset
 .text._fdt_check_prop_offset
                0x0000000000029324       0x38 lib/libfdt/built-in.o
                0x0000000000029324                _fdt_check_prop_offset
 .text.fdt_next_node
                0x000000000002935c       0xc0 lib/libfdt/built-in.o
                0x000000000002935c                fdt_next_node
 .text.fdt_first_subnode
                0x000000000002941c       0x34 lib/libfdt/built-in.o
                0x000000000002941c                fdt_first_subnode
 .text.fdt_next_subnode
                0x0000000000029450       0x4c lib/libfdt/built-in.o
                0x0000000000029450                fdt_next_subnode
 .text._fdt_find_string
                0x000000000002949c       0x58 lib/libfdt/built-in.o
                0x000000000002949c                _fdt_find_string
 .text.fdt_move
                0x00000000000294f4       0x48 lib/libfdt/built-in.o
                0x00000000000294f4                fdt_move
 .text._nextprop
                0x000000000002953c       0x50 lib/libfdt/built-in.o
 .text.fdt_path_next_seperator
                0x000000000002958c       0x50 lib/libfdt/built-in.o
 .text.fdt_string
                0x00000000000295dc       0x14 lib/libfdt/built-in.o
                0x00000000000295dc                fdt_string
 .text.fdt_get_mem_rsv
                0x00000000000295f0       0x5c lib/libfdt/built-in.o
                0x00000000000295f0                fdt_get_mem_rsv
 .text.fdt_num_mem_rsv
                0x000000000002964c       0x3c lib/libfdt/built-in.o
                0x000000000002964c                fdt_num_mem_rsv
 .text.fdt_subnode_offset_namelen
                0x0000000000029688       0xd0 lib/libfdt/built-in.o
                0x0000000000029688                fdt_subnode_offset_namelen
 .text.fdt_subnode_offset
                0x0000000000029758       0x30 lib/libfdt/built-in.o
                0x0000000000029758                fdt_subnode_offset
 .text.fdt_get_name
                0x0000000000029788       0x6c lib/libfdt/built-in.o
                0x0000000000029788                fdt_get_name
 .text.fdt_first_property_offset
                0x00000000000297f4       0x20 lib/libfdt/built-in.o
                0x00000000000297f4                fdt_first_property_offset
 .text.fdt_next_property_offset
                0x0000000000029814       0x20 lib/libfdt/built-in.o
                0x0000000000029814                fdt_next_property_offset
 .text.fdt_get_property_by_offset
                0x0000000000029834       0x50 lib/libfdt/built-in.o
                0x0000000000029834                fdt_get_property_by_offset
 .text.fdt_get_property_namelen
                0x0000000000029884       0xbc lib/libfdt/built-in.o
                0x0000000000029884                fdt_get_property_namelen
 .text.fdt_get_property
                0x0000000000029940       0x38 lib/libfdt/built-in.o
                0x0000000000029940                fdt_get_property
 .text.fdt_getprop_namelen
                0x0000000000029978       0x1c lib/libfdt/built-in.o
                0x0000000000029978                fdt_getprop_namelen
 .text.fdt_getprop
                0x0000000000029994       0x38 lib/libfdt/built-in.o
                0x0000000000029994                fdt_getprop
 .text.fdt_get_phandle
                0x00000000000299cc       0x70 lib/libfdt/built-in.o
                0x00000000000299cc                fdt_get_phandle
 .text.fdt_get_alias_namelen
                0x0000000000029a3c       0x48 lib/libfdt/built-in.o
                0x0000000000029a3c                fdt_get_alias_namelen
 .text.fdt_path_offset
                0x0000000000029a84       0xec lib/libfdt/built-in.o
                0x0000000000029a84                fdt_path_offset
 .text.fdt_supernode_atdepth_offset
                0x0000000000029b70       0xb8 lib/libfdt/built-in.o
                0x0000000000029b70                fdt_supernode_atdepth_offset
 .text.fdt_node_depth
                0x0000000000029c28       0x24 lib/libfdt/built-in.o
                0x0000000000029c28                fdt_node_depth
 .text.fdt_parent_offset
                0x0000000000029c4c       0x30 lib/libfdt/built-in.o
                0x0000000000029c4c                fdt_parent_offset
 .text.fdt_node_offset_by_phandle
                0x0000000000029c7c       0x78 lib/libfdt/built-in.o
                0x0000000000029c7c                fdt_node_offset_by_phandle
 .text.fdt_node_offset_by_phandle_node
                0x0000000000029cf4       0x9c lib/libfdt/built-in.o
                0x0000000000029cf4                fdt_node_offset_by_phandle_node
 .text.fdt_stringlist_contains
                0x0000000000029d90       0x80 lib/libfdt/built-in.o
                0x0000000000029d90                fdt_stringlist_contains
 .text.fdt_node_check_compatible
                0x0000000000029e10       0x3c lib/libfdt/built-in.o
                0x0000000000029e10                fdt_node_check_compatible
 .text.fdt_node_offset_by_compatible
                0x0000000000029e4c       0x7c lib/libfdt/built-in.o
                0x0000000000029e4c                fdt_node_offset_by_compatible
 .text.fdt_device_is_available
                0x0000000000029ec8       0x54 lib/libfdt/built-in.o
                0x0000000000029ec8                fdt_device_is_available
 .text._fdt_blocks_misordered
                0x0000000000029f1c       0x64 lib/libfdt/built-in.o
 .text._fdt_packblocks
                0x0000000000029f80       0xa8 lib/libfdt/built-in.o
 .text._fdt_splice
                0x000000000002a028       0x78 lib/libfdt/built-in.o
 .text._fdt_splice_struct
                0x000000000002a0a0       0x4c lib/libfdt/built-in.o
 .text._fdt_splice_mem_rsv
                0x000000000002a0ec       0x58 lib/libfdt/built-in.o
 .text._fdt_add_property
                0x000000000002a144      0x12c lib/libfdt/built-in.o
 .text._fdt_rw_check_header
                0x000000000002a270       0x64 lib/libfdt/built-in.o
 .text.fdt_add_mem_rsv
                0x000000000002a2d4       0x94 lib/libfdt/built-in.o
                0x000000000002a2d4                fdt_add_mem_rsv
 .text.fdt_del_mem_rsv
                0x000000000002a368       0x58 lib/libfdt/built-in.o
                0x000000000002a368                fdt_del_mem_rsv
 .text.fdt_setprop
                0x000000000002a3c0       0xd8 lib/libfdt/built-in.o
                0x000000000002a3c0                fdt_setprop
 .text.fdt_delprop
                0x000000000002a498       0x64 lib/libfdt/built-in.o
                0x000000000002a498                fdt_delprop
 .text.fdt_add_subnode_namelen
                0x000000000002a4fc       0xf8 lib/libfdt/built-in.o
                0x000000000002a4fc                fdt_add_subnode_namelen
 .text.fdt_add_subnode
                0x000000000002a5f4       0x30 lib/libfdt/built-in.o
                0x000000000002a5f4                fdt_add_subnode
 .text.fdt_del_node
                0x000000000002a624       0x5c lib/libfdt/built-in.o
                0x000000000002a624                fdt_del_node
 .text.fdt_open_into
                0x000000000002a680      0x1b4 lib/libfdt/built-in.o
                0x000000000002a680                fdt_open_into
 .text.fdt_strerror
                0x000000000002a834       0x58 lib/libfdt/built-in.o
                0x000000000002a834                fdt_strerror
 .text._fdt_node_end_offset
                0x000000000002a88c       0x40 lib/libfdt/built-in.o
                0x000000000002a88c                _fdt_node_end_offset
 .text.__aeabi_unwind_cpp_pr0
                0x000000000002a8cc        0x4 arch/arm/lib/eabi_compat.o
                0x000000000002a8cc                __aeabi_unwind_cpp_pr0
 .text          0x000000000002a8d0       0xc8 /home/rk3288-sdk/prebuilts/gcc/linux-x86/arm/arm-eabi-4.7/bin/../lib/gcc/arm-eabi/4.7/libgcc.a(_udivsi3.o)
                0x000000000002a8d0                __udivsi3
                0x000000000002a8d0                __aeabi_uidiv
                0x000000000002a978                __aeabi_uidivmod
 .text          0x000000000002a998       0xfc /home/rk3288-sdk/prebuilts/gcc/linux-x86/arm/arm-eabi-4.7/bin/../lib/gcc/arm-eabi/4.7/libgcc.a(_divsi3.o)
                0x000000000002a998                __aeabi_idiv
                0x000000000002a998                __divsi3
                0x000000000002aa74                __aeabi_idivmod
 .text          0x000000000002aa94        0x4 /home/rk3288-sdk/prebuilts/gcc/linux-x86/arm/arm-eabi-4.7/bin/../lib/gcc/arm-eabi/4.7/libgcc.a(_dvmd_tls.o)
                0x000000000002aa94                __aeabi_ldiv0
                0x000000000002aa94                __aeabi_idiv0
 .text          0x000000000002aa98       0x1c /home/rk3288-sdk/prebuilts/gcc/linux-x86/arm/arm-eabi-4.7/bin/../lib/gcc/arm-eabi/4.7/libgcc.a(_lshrdi3.o)
                0x000000000002aa98                __aeabi_llsr
                0x000000000002aa98                __lshrdi3
 .text          0x000000000002aab4       0x1c /home/rk3288-sdk/prebuilts/gcc/linux-x86/arm/arm-eabi-4.7/bin/../lib/gcc/arm-eabi/4.7/libgcc.a(_ashldi3.o)
                0x000000000002aab4                __ashldi3
                0x000000000002aab4                __aeabi_llsl
 .text          0x000000000002aad0       0x3c /home/rk3288-sdk/prebuilts/gcc/linux-x86/arm/arm-eabi-4.7/bin/../lib/gcc/arm-eabi/4.7/libgcc.a(_aeabi_uldivmod.o)
                0x000000000002aad0                __aeabi_uldivmod
 .text          0x000000000002ab0c       0x78 /home/rk3288-sdk/prebuilts/gcc/linux-x86/arm/arm-eabi-4.7/bin/../lib/gcc/arm-eabi/4.7/libgcc.a(bpabi.o)
                0x000000000002ab0c                __gnu_ldivmod_helper
                0x000000000002ab48                __gnu_uldivmod_helper
 .text          0x000000000002ab84      0x4a8 /home/rk3288-sdk/prebuilts/gcc/linux-x86/arm/arm-eabi-4.7/bin/../lib/gcc/arm-eabi/4.7/libgcc.a(_divdi3.o)
                0x000000000002ab84                __divdi3
 .text          0x000000000002b02c      0x42c /home/rk3288-sdk/prebuilts/gcc/linux-x86/arm/arm-eabi-4.7/bin/../lib/gcc/arm-eabi/4.7/libgcc.a(_udivdi3.o)
                0x000000000002b02c                __udivdi3

.glue_7         0x000000000002b458        0x0
 .glue_7        0x0000000000000000        0x0 linker stubs

.glue_7t        0x000000000002b458        0x0
 .glue_7t       0x0000000000000000        0x0 linker stubs

.vfp11_veneer   0x000000000002b458        0x0
 .vfp11_veneer  0x0000000000000000        0x0 linker stubs

.v4_bx          0x000000000002b458        0x0
 .v4_bx         0x0000000000000000        0x0 linker stubs

.iplt           0x000000000002b458        0x0
 .iplt          0x0000000000000000        0x0 arch/arm/cpu/armv7/start.o
                0x000000000002b458                . = ALIGN (0x4)

.rodata         0x000000000002b458    0x173a5
 *(SORT(.rodata*))
 .rodata        0x000000000002b458       0x14 arch/arm/cpu/armv7/rk32xx/built-in.o
 .rodata        0x000000000002b46c       0x80 arch/arm/lib/built-in.o
 .rodata        0x000000000002b4ec    0x100f0 board/rockchip/common/built-in.o
 .rodata        0x000000000003b5dc        0xc drivers/power/built-in.o
 .rodata.baudrate_table
                0x000000000003b5e8       0x14 drivers/serial/built-in.o
 .rodata.boot_os
                0x000000000003b5fc       0x48 common/built-in.o
 .rodata.buck_set_vol_base_addr
                0x000000000003b644       0x20 drivers/power/pmic/built-in.o
 .rodata.compat_names
                0x000000000003b664       0xe8 lib/built-in.o
 .rodata.crc_table
                0x000000000003b74c      0x400 lib/built-in.o
 .rodata.env_flags_varaccess_mask
                0x000000000003bb4c       0x10 common/built-in.o
 .rodata.fdt_errtable
                0x000000000003bb5c       0x34 lib/libfdt/built-in.o
 .rodata.fg_names
                0x000000000003bb90       0x18 drivers/power/built-in.o
 .rodata.getvar_table
                0x000000000003bba8       0x84 common/built-in.o
 .rodata.ldo3_voltage_map
                0x000000000003bc2c       0x80 drivers/power/pmic/built-in.o
 .rodata.ldo6_voltage_map
                0x000000000003bcac       0x90 drivers/power/pmic/built-in.o
 .rodata.ldo_set_vol_base_addr
                0x000000000003bd3c       0x44 drivers/power/pmic/built-in.o
 .rodata.ldo_voltage_map
                0x000000000003bd80       0x88 drivers/power/pmic/built-in.o
 .rodata.memFunTab
                0x000000000003be08        0x8 board/rockchip/common/built-in.o
 .rodata.uimage_arch
                0x000000000003be10       0x24 common/built-in.o
 .rodata.uimage_comp
                0x000000000003be34       0x48 common/built-in.o
 .rodata.uimage_os
                0x000000000003be7c       0x18 common/built-in.o
 .rodata.uimage_type
                0x000000000003be94       0x18 common/built-in.o
 .rodata.volt_tab
                0x000000000003beac       0x30 drivers/power/fuel_gauge/built-in.o
 .rodata.voltage_map
                0x000000000003bedc      0x104 drivers/power/pmic/built-in.o
 .rodata        0x000000000003bfe0        0xe board/rockchip/rk32xx/built-in.o
 .rodata        0x000000000003bfee        0x3 common/built-in.o
 .rodata.CSWTCH.187
                0x000000000003bff1        0x3 drivers/power/fuel_gauge/built-in.o
 .rodata.CSWTCH.56
                0x000000000003bff4        0x4 arch/arm/cpu/armv7/rk32xx/built-in.o
 .rodata.CSWTCH.59
                0x000000000003bff8        0x4 arch/arm/cpu/armv7/rk32xx/built-in.o
 .rodata.CSWTCH.61
                0x000000000003bffc        0x8 arch/arm/cpu/armv7/rk32xx/built-in.o
 .rodata.CSWTCH.73
                0x000000000003c004        0x3 arch/arm/cpu/armv7/rk32xx/built-in.o
 .rodata.CSWTCH.76
                0x000000000003c007        0x4 arch/arm/cpu/armv7/rk32xx/built-in.o
 .rodata.CSWTCH.80
                0x000000000003c00b        0x3 arch/arm/cpu/armv7/rk32xx/built-in.o
 .rodata.CSWTCH.83
                0x000000000003c00e        0x4 arch/arm/cpu/armv7/rk32xx/built-in.o
 .rodata.Xor_tab
                0x000000000003c012       0x38 common/built-in.o
 .rodata.__FUNCTION__.6825
                0x000000000003c04a       0x12 drivers/usb/gadget/built-in.o
 .rodata.__FUNCTION__.6861
                0x000000000003c05c        0xf drivers/usb/gadget/built-in.o
 .rodata.__FUNCTION__.6871
                0x000000000003c06b       0x16 drivers/usb/gadget/built-in.o
 .rodata.__FUNCTION__.7190
                0x000000000003c081       0x17 common/built-in.o
 .rodata.__FUNCTION__.8738
                0x000000000003c098       0x13 drivers/usb/gadget/built-in.o
 .rodata.__FUNCTION__.8827
                0x000000000003c0ab        0xf drivers/usb/gadget/built-in.o
 .rodata.__func__.10025
                0x000000000003c0ba       0x10 common/built-in.o
 .rodata.__func__.10074
                0x000000000003c0ca        0xd common/built-in.o
 .rodata.__func__.10084
                0x000000000003c0d7        0xf common/built-in.o
 .rodata.__func__.10092
                0x000000000003c0e6       0x10 common/built-in.o
 .rodata.__func__.10101
                0x000000000003c0f6        0xf common/built-in.o
 .rodata.__func__.10115
                0x000000000003c105       0x15 common/built-in.o
 .rodata.__func__.10129
                0x000000000003c11a        0xc common/built-in.o
 .rodata.__func__.6317
                0x000000000003c126       0x16 arch/arm/cpu/armv7/built-in.o
 .rodata.__func__.6441
                0x000000000003c13c       0x10 common/built-in.o
 .rodata.__func__.6464
                0x000000000003c14c        0xf drivers/power/built-in.o
 .rodata.__func__.6477
                0x000000000003c15b        0xe drivers/power/built-in.o
 .rodata.__func__.6538
                0x000000000003c169        0xb drivers/power/built-in.o
 .rodata.__func__.6694
                0x000000000003c174        0xc drivers/power/fuel_gauge/built-in.o
 .rodata.__func__.6705
                0x000000000003c180       0x19 drivers/power/fuel_gauge/built-in.o
 .rodata.__func__.6778
                0x000000000003c199        0xe common/built-in.o
 .rodata.__func__.6815
                0x000000000003c1a7        0xe common/built-in.o
 .rodata.__func__.7064
                0x000000000003c1b5       0x18 common/built-in.o
 .rodata.__func__.7311
                0x000000000003c1cd       0x12 drivers/power/pmic/built-in.o
 .rodata.__func__.7511
                0x000000000003c1df        0xe arch/arm/cpu/armv7/rk32xx/built-in.o
 .rodata.__func__.7549
                0x000000000003c1ed       0x10 drivers/power/charge/built-in.o
 .rodata.__func__.7626
                0x000000000003c1fd       0x13 drivers/power/charge/built-in.o
 .rodata.__func__.7640
                0x000000000003c210        0x8 common/built-in.o
 .rodata.__func__.7775
                0x000000000003c218       0x11 drivers/power/pmic/built-in.o
 .rodata.__func__.7790
                0x000000000003c229       0x14 drivers/i2c/built-in.o
 .rodata.__func__.7810
                0x000000000003c23d       0x14 lib/built-in.o
 .rodata.__func__.7853
                0x000000000003c251        0xf drivers/power/pmic/built-in.o
 .rodata.__func__.7866
                0x000000000003c260        0xf drivers/power/pmic/built-in.o
 .rodata.__func__.8294
                0x000000000003c26f       0x13 drivers/power/fuel_gauge/built-in.o
 .rodata.__func__.8341
                0x000000000003c282       0x17 drivers/built-in.o
 .rodata.__func__.8381
                0x000000000003c299       0x10 drivers/built-in.o
 .rodata.__func__.8470
                0x000000000003c2a9       0x12 drivers/built-in.o
 .rodata.__func__.8562
                0x000000000003c2bb       0x1c drivers/built-in.o
 .rodata.__func__.8692
                0x000000000003c2d7       0x19 drivers/built-in.o
 .rodata.__func__.8917
                0x000000000003c2f0       0x1b common/built-in.o
 .rodata.__func__.8930
                0x000000000003c30b       0x14 common/built-in.o
 .rodata.__func__.8957
                0x000000000003c31f       0x14 board/rockchip/common/built-in.o
 .rodata.__func__.8992
                0x000000000003c333       0x1b board/rockchip/common/built-in.o
 .rodata.__func__.9008
                0x000000000003c34e       0x17 board/rockchip/common/built-in.o
 .rodata.__func__.9274
                0x000000000003c365        0xe common/built-in.o
 .rodata.__func__.9300
                0x000000000003c373        0xa common/built-in.o
 .rodata.__func__.9302
                0x000000000003c37d       0x17 board/rockchip/common/built-in.o
 .rodata.__func__.9307
                0x000000000003c394       0x21 board/rockchip/common/built-in.o
 .rodata.__func__.9308
                0x000000000003c3b5        0xc common/built-in.o
 .rodata.__func__.9311
                0x000000000003c3c1       0x1a board/rockchip/common/built-in.o
 .rodata.__func__.9318
                0x000000000003c3db       0x18 board/rockchip/common/built-in.o
 .rodata.__func__.9331
                0x000000000003c3f3       0x14 common/built-in.o
 .rodata.__func__.9610
                0x000000000003c407        0xa common/built-in.o
 .rodata.__func__.9682
                0x000000000003c411        0xf common/built-in.o
 .rodata.__func__.9757
                0x000000000003c420        0xb common/built-in.o
 .rodata.__func__.9969
                0x000000000003c42b       0x12 common/built-in.o
 .rodata.__func__.9976
                0x000000000003c43d       0x11 common/built-in.o
 .rodata.__func__.9983
                0x000000000003c44e       0x11 common/built-in.o
 .rodata._ctype
                0x000000000003c45f      0x100 lib/built-in.o
                0x000000000003c45f                _ctype
 .rodata.default_environment
                0x000000000003c55f       0x6a common/built-in.o
                0x000000000003c55f                default_environment
 .rodata.delims.6321
                0x000000000003c5c9        0x3 common/built-in.o
 .rodata.digits.6331
                0x000000000003c5cc       0x10 lib/built-in.o
 .rodata.env_flags_varaccess_rep
                0x000000000003c5dc        0x5 common/built-in.o
 .rodata.env_flags_vartype_rep
                0x000000000003c5e1        0x5 common/built-in.o
 .rodata.erase_seq
                0x000000000003c5e6        0x4 common/built-in.o
 .rodata.name.6731
                0x000000000003c5ea        0xc drivers/power/fuel_gauge/built-in.o
 .rodata.name.7866
                0x000000000003c5f6        0xa drivers/power/fuel_gauge/built-in.o
 .rodata.name.8299
                0x000000000003c600        0x9 drivers/power/fuel_gauge/built-in.o
 .rodata.names.6362
                0x000000000003c609        0x6 lib/built-in.o
 .rodata.str1.1
                0x000000000003c60f       0x65 arch/arm/cpu/armv7/built-in.o
 .rodata.str1.1
                0x000000000003c674      0x1af arch/arm/cpu/armv7/rk32xx/built-in.o
                                        0x1b1 (size before relaxing)
 .rodata.str1.1
                0x000000000003c823      0x32b arch/arm/lib/built-in.o
                                        0x334 (size before relaxing)
 .rodata.str1.1
                0x000000000003cb4e      0xa77 board/rockchip/common/built-in.o
                                        0xb92 (size before relaxing)
 .rodata.str1.1
                0x000000000003d5c5       0x7c board/rockchip/rk32xx/built-in.o
                                         0x83 (size before relaxing)
 .rodata.str1.1
                0x000000000003d641     0x2f11 common/built-in.o
                                       0x3373 (size before relaxing)
 .rodata.str1.1
                0x0000000000040552      0x5eb drivers/built-in.o
                                        0x638 (size before relaxing)
 .rodata.str1.1
                0x0000000000040b3d      0x13b drivers/i2c/built-in.o
 .rodata.str1.1
                0x0000000000040c78      0x3aa drivers/power/built-in.o
                                        0x3c8 (size before relaxing)
 .rodata.str1.1
                0x0000000000041022      0x246 drivers/power/charge/built-in.o
                                        0x251 (size before relaxing)
 .rodata.str1.1
                0x0000000000041268      0x2ff drivers/power/fuel_gauge/built-in.o
                                        0x33f (size before relaxing)
 .rodata.str1.1
                0x0000000000041567      0x3c6 drivers/power/pmic/built-in.o
                                        0x455 (size before relaxing)
 .rodata.str1.1
                0x000000000004192d       0x89 drivers/serial/built-in.o
                                         0x92 (size before relaxing)
 .rodata.str1.1
                0x00000000000419b6      0x598 drivers/usb/gadget/built-in.o
                                        0x5af (size before relaxing)
 .rodata.str1.1
                0x0000000000041f4e      0x771 lib/built-in.o
                                        0x7d1 (size before relaxing)
 .rodata.str1.1
                0x00000000000426bf       0xf4 lib/libfdt/built-in.o
                                        0x146 (size before relaxing)
 .rodata.tab_seq
                0x00000000000427b3        0x9 common/built-in.o
 .rodata.version_string
                0x00000000000427bc       0x41 common/built-in.o
                0x00000000000427bc                version_string

.hash           0x0000000000042800       0x2c
 .hash          0x0000000000042800       0x2c arch/arm/cpu/armv7/start.o
                0x000000000004282c                . = ALIGN (0x4)

.data           0x0000000000042840     0x4644
 *(.data*)
 .data.rkpll_data
                0x0000000000042840       0x3c arch/arm/cpu/armv7/rk32xx/built-in.o
 .data.cpll_clks
                0x000000000004287c       0x6c arch/arm/cpu/armv7/rk32xx/built-in.o
 .data.apll_clks
                0x00000000000428e8       0x6c arch/arm/cpu/armv7/rk32xx/built-in.o
 .data.gpll_clks
                0x0000000000042954       0x90 arch/arm/cpu/armv7/rk32xx/built-in.o
 .data.g_id_block_size
                0x00000000000429e4        0x4 board/rockchip/common/built-in.o
                0x00000000000429e4                g_id_block_size
 .data.sd0FunOp
                0x00000000000429e8       0x44 board/rockchip/common/built-in.o
                0x00000000000429e8                sd0FunOp
 .data.emmcFunOp
                0x0000000000042a2c       0x44 board/rockchip/common/built-in.o
 .data.nullFunOp
                0x0000000000042a70       0x44 board/rockchip/common/built-in.o
 .data.reserved_list
                0x0000000000042ab4       0x84 common/built-in.o
 .data.init_sequence_f
                0x0000000000042b38       0x90 common/built-in.o
 .data.init_sequence_r
                0x0000000000042bc8       0x5c common/built-in.o
                0x0000000000042bc8                init_sequence_r
 .data.bootm_help_text
                0x0000000000042c24      0x38b common/built-in.o
 *fill*         0x0000000000042faf        0x1 
 .data.cmd_bootm_sub
                0x0000000000042fb0       0xd8 common/built-in.o
 .data.first_call
                0x0000000000043088        0x8 common/built-in.o
 .data.env_name_spec
                0x0000000000043090        0x4 common/built-in.o
                0x0000000000043090                env_name_spec
 .data.cmd_bmp_sub
                0x0000000000043094       0x30 common/built-in.o
 .data.root.7077
                0x00000000000430c4        0x2 common/built-in.o
 .data.tabs.7160
                0x00000000000430c6       0x21 common/built-in.o
 .data.fdt_help_text
                0x00000000000430e7      0x5e3 common/built-in.o
 .data.device_descriptor
                0x00000000000436ca       0x24 common/built-in.o
 *fill*         0x00000000000436ee        0x2 
 .data.wstr_lang
                0x00000000000436f0        0x8 common/built-in.o
 .data.fastboot_name
                0x00000000000436f8        0xc common/built-in.o
 .data.fbt_config_desc
                0x0000000000043704       0x20 common/built-in.o
 .data.g_rk_fb_size
                0x0000000000043724        0x4 common/built-in.o
 .data.rkusb_bos_desc
                0x0000000000043728        0x8 common/built-in.o
 .data.rkusb_config_desc
                0x0000000000043730       0x20 common/built-in.o
 .data.serial_number
                0x0000000000043750       0x10 common/built-in.o
 .data.rockusb_name
                0x0000000000043760       0x11 common/built-in.o
 .data.bmp_logo_bitmap
                0x0000000000043771     0x2710 common/built-in.o
                0x0000000000043771                bmp_logo_bitmap
 *fill*         0x0000000000045e81        0x1 
 .data.bmp_logo_palette
                0x0000000000045e82      0x1e0 common/built-in.o
                0x0000000000045e82                bmp_logo_palette
 .data.env_help_text
                0x0000000000046062      0x1b7 common/built-in.o
 *fill*         0x0000000000046219        0x3 
 .data.env_id   0x000000000004621c        0x4 common/built-in.o
 .data.cmd_env_sub
                0x0000000000046220       0xa8 common/built-in.o
 .data.env_htab
                0x00000000000462c8       0x10 common/built-in.o
                0x00000000000462c8                env_htab
 .data.av_      0x00000000000462d8      0x408 common/built-in.o
 .data.sbrk_base
                0x00000000000466e0        0x4 common/built-in.o
 .data.trim_threshold
                0x00000000000466e4        0x4 common/built-in.o
 .data.panel_info
                0x00000000000466e8       0xdc drivers/built-in.o
                0x00000000000466e8                panel_info
 .data.rk_gpio_banks
                0x00000000000467c4       0x90 drivers/gpio/built-in.o
 .data.rki2c_base
                0x0000000000046854       0x30 drivers/i2c/built-in.o
 .data.g_i2c_online_bus
                0x0000000000046884        0x4 drivers/i2c/built-in.o
 .data.pmic_list
                0x0000000000046888        0x8 drivers/power/built-in.o
 .data.gusb_bc_type
                0x0000000000046890        0x4 drivers/power/charge/built-in.o
 .data.cw201x_fg_ops
                0x0000000000046894        0x8 drivers/power/fuel_gauge/built-in.o
 .data.fg_ops   0x000000000004689c       0x10 drivers/power/fuel_gauge/built-in.o
 .data.rk818_state_of_chrg
                0x00000000000468ac        0x4 drivers/power/fuel_gauge/built-in.o
                0x00000000000468ac                rk818_state_of_chrg
 .data.CHG_V_LMT
                0x00000000000468b0       0x18 drivers/power/fuel_gauge/built-in.o
                0x00000000000468b0                CHG_V_LMT
 .data.CHG_I_LMT
                0x00000000000468c8       0x30 drivers/power/fuel_gauge/built-in.o
                0x00000000000468c8                CHG_I_LMT
 .data.CHG_I_CUR
                0x00000000000468f8       0x2c drivers/power/fuel_gauge/built-in.o
                0x00000000000468f8                CHG_I_CUR
 .data.rk808_reg_matches
                0x0000000000046924      0x118 drivers/power/pmic/built-in.o
 .data.rk818_reg_matches
                0x0000000000046a3c      0x118 drivers/power/pmic/built-in.o
 .data.act8846_reg_matches
                0x0000000000046b54       0xf0 drivers/power/pmic/built-in.o
 .data.act8846_regulators
                0x0000000000046c44       0x60 drivers/power/pmic/built-in.o
 .data.ricoh619_regulator_matches
                0x0000000000046ca4      0x154 drivers/power/pmic/built-in.o
 .data.rk_serial_drv
                0x0000000000046df8       0x30 drivers/serial/built-in.o
 .data.maxstrings
                0x0000000000046e28        0x4 drivers/usb/gadget/built-in.o
                0x0000000000046e28                maxstrings
 .data.suspend  0x0000000000046e2c        0x4 drivers/usb/gadget/built-in.o
                0x0000000000046e2c                suspend
 *fill*         0x0000000000046e30       0x10 
 .data.fixed_csw
                0x0000000000046e40       0x40 drivers/usb/gadget/built-in.o
                0x0000000000046e40                fixed_csw
 .data.pinctrl_node.7814
                0x0000000000046e80        0x4 lib/built-in.o

.got            0x0000000000046e84        0x0
 .got           0x0000000000000000        0x0 arch/arm/cpu/armv7/start.o

.got.plt        0x0000000000046e84        0xc
 .got.plt       0x0000000000046e84        0xc arch/arm/cpu/armv7/start.o
                0x0000000000046e84                _GLOBAL_OFFSET_TABLE_

.igot.plt       0x0000000000046e90        0x0
 .igot.plt      0x0000000000000000        0x0 arch/arm/cpu/armv7/start.o
                0x0000000000046e90                . = ALIGN (0x4)
                0x0000000000046e90                . = .
                0x0000000000046e90                . = ALIGN (0x4)

.u_boot_list    0x0000000000046e90      0x1f0
 *(SORT(.u_boot_list*))
 .u_boot_list_2_cmd_1
                0x0000000000046e90        0x0 common/built-in.o
 .u_boot_list_2_cmd_2_bmp
                0x0000000000046e90       0x18 common/built-in.o
                0x0000000000046e90                _u_boot_list_2_cmd_2_bmp
 .u_boot_list_2_cmd_2_bootm
                0x0000000000046ea8       0x18 common/built-in.o
                0x0000000000046ea8                _u_boot_list_2_cmd_2_bootm
 .u_boot_list_2_cmd_2_bootrk
                0x0000000000046ec0       0x18 common/built-in.o
                0x0000000000046ec0                _u_boot_list_2_cmd_2_bootrk
 .u_boot_list_2_cmd_2_cls
                0x0000000000046ed8       0x18 common/built-in.o
                0x0000000000046ed8                _u_boot_list_2_cmd_2_cls
 .u_boot_list_2_cmd_2_env
                0x0000000000046ef0       0x18 common/built-in.o
                0x0000000000046ef0                _u_boot_list_2_cmd_2_env
 .u_boot_list_2_cmd_2_exit
                0x0000000000046f08       0x18 common/built-in.o
                0x0000000000046f08                _u_boot_list_2_cmd_2_exit
 .u_boot_list_2_cmd_2_fastboot
                0x0000000000046f20       0x18 common/built-in.o
                0x0000000000046f20                _u_boot_list_2_cmd_2_fastboot
 .u_boot_list_2_cmd_2_fdt
                0x0000000000046f38       0x18 common/built-in.o
                0x0000000000046f38                _u_boot_list_2_cmd_2_fdt
 .u_boot_list_2_cmd_2_go
                0x0000000000046f50       0x18 common/built-in.o
                0x0000000000046f50                _u_boot_list_2_cmd_2_go
 .u_boot_list_2_cmd_2_help
                0x0000000000046f68       0x18 common/built-in.o
                0x0000000000046f68                _u_boot_list_2_cmd_2_help
 .u_boot_list_2_cmd_2_pmic
                0x0000000000046f80       0x18 drivers/power/built-in.o
                0x0000000000046f80                _u_boot_list_2_cmd_2_pmic
 .u_boot_list_2_cmd_2_printenv
                0x0000000000046f98       0x18 common/built-in.o
                0x0000000000046f98                _u_boot_list_2_cmd_2_printenv
 .u_boot_list_2_cmd_2_question_mark
                0x0000000000046fb0       0x18 common/built-in.o
                0x0000000000046fb0                _u_boot_list_2_cmd_2_question_mark
 .u_boot_list_2_cmd_2_reset
                0x0000000000046fc8       0x18 common/built-in.o
                0x0000000000046fc8                _u_boot_list_2_cmd_2_reset
 .u_boot_list_2_cmd_2_rockusb
                0x0000000000046fe0       0x18 common/built-in.o
                0x0000000000046fe0                _u_boot_list_2_cmd_2_rockusb
 .u_boot_list_2_cmd_2_saveenv
                0x0000000000046ff8       0x18 common/built-in.o
                0x0000000000046ff8                _u_boot_list_2_cmd_2_saveenv
 .u_boot_list_2_cmd_2_setenv
                0x0000000000047010       0x18 common/built-in.o
                0x0000000000047010                _u_boot_list_2_cmd_2_setenv
 .u_boot_list_2_cmd_2_showvar
                0x0000000000047028       0x18 common/built-in.o
                0x0000000000047028                _u_boot_list_2_cmd_2_showvar
 .u_boot_list_2_cmd_2_version
                0x0000000000047040       0x18 common/built-in.o
                0x0000000000047040                _u_boot_list_2_cmd_2_version
 .u_boot_list_2_cmd_3
                0x0000000000047058        0x0 common/built-in.o
 .u_boot_list_2_env_clbk_1
                0x0000000000047058        0x0 common/built-in.o
 .u_boot_list_2_env_clbk_2_baudrate
                0x0000000000047058        0x8 drivers/serial/built-in.o
                0x0000000000047058                _u_boot_list_2_env_clbk_2_baudrate
 .u_boot_list_2_env_clbk_2_callbacks
                0x0000000000047060        0x8 common/built-in.o
                0x0000000000047060                _u_boot_list_2_env_clbk_2_callbacks
 .u_boot_list_2_env_clbk_2_console
                0x0000000000047068        0x8 common/built-in.o
                0x0000000000047068                _u_boot_list_2_env_clbk_2_console
 .u_boot_list_2_env_clbk_2_flags
                0x0000000000047070        0x8 common/built-in.o
                0x0000000000047070                _u_boot_list_2_env_clbk_2_flags
 .u_boot_list_2_env_clbk_2_loadaddr
                0x0000000000047078        0x8 common/built-in.o
                0x0000000000047078                _u_boot_list_2_env_clbk_2_loadaddr
 .u_boot_list_2_env_clbk_3
                0x0000000000047080        0x0 common/built-in.o
                0x0000000000047080                . = ALIGN (0x4)

.image_copy_end
                0x0000000000047080        0x0
 *(.__image_copy_end)
 .__image_copy_end
                0x0000000000047080        0x0 arch/arm/lib/built-in.o

.rel_dyn_start  0x0000000000047080        0x0
 *(.__rel_dyn_start)
 .__rel_dyn_start
                0x0000000000047080        0x0 arch/arm/lib/built-in.o

.rel.dyn        0x0000000000047080     0x5588
 *(.rel*)
 .rel.got       0x0000000000000000        0x0 arch/arm/cpu/armv7/start.o
 .rel.plt       0x0000000000000000        0x0 arch/arm/cpu/armv7/start.o
 .rel.iplt      0x0000000000000000        0x0 arch/arm/cpu/armv7/start.o
 .rel.text      0x0000000000047080       0x50 arch/arm/cpu/armv7/start.o
 .rel.text.v7_dcache_inval_range
                0x00000000000470d0       0x18 arch/arm/cpu/armv7/start.o
 .rel.text.print_cpuinfo
                0x00000000000470e8        0x8 arch/arm/cpu/armv7/start.o
 .rel.text.rkclk_pll_wait_lock
                0x00000000000470f0        0x8 arch/arm/cpu/armv7/start.o
 .rel.text.rkclk_pll_set_rate
                0x00000000000470f8        0x8 arch/arm/cpu/armv7/start.o
 .rel.text.rkclk_gpll_cb
                0x0000000000047100       0x18 arch/arm/cpu/armv7/start.o
 .rel.text.rkclk_set_pll_rate_by_id
                0x0000000000000000        0x0 arch/arm/cpu/armv7/start.o
 .rel.text.rkclk_set_pll
                0x0000000000047118       0x10 arch/arm/cpu/armv7/start.o
 .rel.text.rkclk_get_pll
                0x0000000000047128       0x20 arch/arm/cpu/armv7/start.o
 .rel.text.rkclk_dump_pll
                0x0000000000047148       0x30 arch/arm/cpu/armv7/start.o
 .rel.text.rkclk_lcdc_clk_set
                0x0000000000047178        0x8 arch/arm/cpu/armv7/start.o
 .rel.text.gic_set_irq_type
                0x0000000000000000        0x0 arch/arm/cpu/armv7/start.o
 .rel.text.gpio_irq_handler
                0x0000000000047180        0x8 arch/arm/cpu/armv7/start.o
 .rel.text.gpio_irq_set_type
                0x0000000000000000        0x0 arch/arm/cpu/armv7/start.o
 .rel.text.irq_install_handler
                0x0000000000047188        0x8 arch/arm/cpu/armv7/start.o
 .rel.text.irq_uninstall_handler
                0x0000000000000000        0x0 arch/arm/cpu/armv7/start.o
 .rel.text.do_irq
                0x0000000000047190        0x8 arch/arm/cpu/armv7/start.o
 .rel.text.arch_interrupt_init
                0x0000000000047198       0x10 arch/arm/cpu/armv7/start.o
 .rel.text.dram_init_banksize
                0x00000000000471a8       0x18 arch/arm/cpu/armv7/start.o
 .rel.text.rk_iomux_sdcard_save
                0x00000000000471c0        0x8 arch/arm/cpu/armv7/start.o
 .rel.text.rk_iomux_sdcard_restore
                0x00000000000471c8        0x8 arch/arm/cpu/armv7/start.o
 .rel.text.rk_iomux_config
                0x00000000000471d0      0x170 arch/arm/cpu/armv7/start.o
 .rel.text.rk_pwm_config
                0x0000000000047340       0x58 arch/arm/cpu/armv7/start.o
 .rel.data.rkpll_data
                0x0000000000047398       0x18 arch/arm/cpu/armv7/start.o
 .rel.vectors   0x00000000000473b0       0x38 arch/arm/cpu/armv7/start.o
 .rel.text.arch_fixup_fdt
                0x00000000000473e8        0x8 arch/arm/cpu/armv7/start.o
 .rel.text.boot_jump_linux
                0x00000000000473f0       0x28 arch/arm/cpu/armv7/start.o
 .rel.text.boot_prep_linux
                0x0000000000047418       0x18 arch/arm/cpu/armv7/start.o
 .rel.text.interrupt_init
                0x0000000000047430       0x18 arch/arm/cpu/armv7/start.o
 .rel.text.bad_mode
                0x0000000000047448        0x8 arch/arm/cpu/armv7/start.o
 .rel.text.show_regs
                0x0000000000047450       0x50 arch/arm/cpu/armv7/start.o
 .rel.text.do_undefined_instruction
                0x00000000000474a0        0x8 arch/arm/cpu/armv7/start.o
 .rel.text.do_software_interrupt
                0x00000000000474a8        0x8 arch/arm/cpu/armv7/start.o
 .rel.text.do_prefetch_abort
                0x00000000000474b0        0x8 arch/arm/cpu/armv7/start.o
 .rel.text.do_data_abort
                0x00000000000474b8        0x8 arch/arm/cpu/armv7/start.o
 .rel.text.do_not_used
                0x00000000000474c0        0x8 arch/arm/cpu/armv7/start.o
 .rel.text.do_fiq
                0x00000000000474c8        0x8 arch/arm/cpu/armv7/start.o
 .rel.text.do_reset
                0x00000000000474d0        0x8 arch/arm/cpu/armv7/start.o
 .rel.text.enable_caches
                0x0000000000000000        0x0 arch/arm/cpu/armv7/start.o
 .rel.rodata    0x00000000000474d8      0x158 arch/arm/cpu/armv7/start.o
 .rel.text.SHA_final
                0x0000000000000000        0x0 arch/arm/cpu/armv7/start.o
 .rel.text.P_RC4
                0x0000000000047630        0x8 arch/arm/cpu/armv7/start.o
 .rel.text.FW_NandDeInit
                0x0000000000047638        0x8 arch/arm/cpu/armv7/start.o
 .rel.text.get_part
                0x0000000000047640       0x30 arch/arm/cpu/armv7/start.o
 .rel.text.CheckParam
                0x0000000000047670       0x18 arch/arm/cpu/armv7/start.o
 .rel.text.GetParam
                0x0000000000047688       0x20 arch/arm/cpu/armv7/start.o
 .rel.text.ParseParam
                0x00000000000476a8       0xb0 arch/arm/cpu/armv7/start.o
 .rel.text.dump_disk_partitions
                0x0000000000000000        0x0 arch/arm/cpu/armv7/start.o
 .rel.text.get_disk_partition
                0x0000000000047758       0x18 arch/arm/cpu/armv7/start.o
 .rel.text.load_disk_partitions
                0x0000000000047770       0x10 arch/arm/cpu/armv7/start.o
 .rel.text.FindIDBlock.constprop.3
                0x0000000000047780       0x10 arch/arm/cpu/armv7/start.o
 .rel.text.rkidb_update_loader
                0x0000000000047790       0x58 arch/arm/cpu/armv7/start.o
 .rel.text.rkidb_setup_space
                0x00000000000477e8       0x30 arch/arm/cpu/armv7/start.o
 .rel.text.rkidb_get_idblk_data
                0x0000000000047818        0x8 arch/arm/cpu/armv7/start.o
 .rel.text.rkidb_get_rc4_flag
                0x0000000000000000        0x0 arch/arm/cpu/armv7/start.o
 .rel.text.rkidb_get_bootloader_ver
                0x0000000000047820       0x20 arch/arm/cpu/armv7/start.o
 .rel.text.rkidb_get_sn
                0x0000000000047840       0x20 arch/arm/cpu/armv7/start.o
 .rel.text.rkidb_get_hdcp_key
                0x0000000000000000        0x0 arch/arm/cpu/armv7/start.o
 .rel.text.rkidb_erase_drm_key
                0x0000000000000000        0x0 arch/arm/cpu/armv7/start.o
 .rel.text.rkloader_change_cmd_for_recovery
                0x0000000000047860       0x28 arch/arm/cpu/armv7/start.o
 .rel.text.rkloader_run_misc_cmd
                0x0000000000047888       0x70 arch/arm/cpu/armv7/start.o
 .rel.text.rkloader_fixInitrd
                0x00000000000478f8       0x20 arch/arm/cpu/armv7/start.o
 .rel.text.rkloader_set_bootloader_msg
                0x0000000000047918       0x10 arch/arm/cpu/armv7/start.o
 .rel.text.rkimg_load_image
                0x0000000000047928       0x18 arch/arm/cpu/armv7/start.o
 .rel.text.rkimg_handleSparseDownload
                0x0000000000047940       0x20 arch/arm/cpu/armv7/start.o
 .rel.text.rkimage_load_image
                0x0000000000047960       0x10 arch/arm/cpu/armv7/start.o
 .rel.text.rkimage_store_image
                0x0000000000047970       0xa8 arch/arm/cpu/armv7/start.o
 .rel.text.rkimage_handleDownload
                0x0000000000047a18       0x10 arch/arm/cpu/armv7/start.o
 .rel.text.rkimage_load_fdt
                0x0000000000047a28       0x38 arch/arm/cpu/armv7/start.o
 .rel.text.rkimage_load_fdt_ram
                0x0000000000047a60       0x20 arch/arm/cpu/armv7/start.o
 .rel.text.rkimage_prepare_fdt
                0x0000000000047a80       0x20 arch/arm/cpu/armv7/start.o
 .rel.text.checkKey
                0x0000000000047aa0       0x20 arch/arm/cpu/armv7/start.o
 .rel.text.rkkey_power_state
                0x0000000000000000        0x0 arch/arm/cpu/armv7/start.o
 .rel.text.rkkey_get_powerkey
                0x0000000000000000        0x0 arch/arm/cpu/armv7/start.o
 .rel.text.key_init
                0x0000000000047ac0       0x68 arch/arm/cpu/armv7/start.o
 .rel.text.powerOn
                0x0000000000047b28        0x8 arch/arm/cpu/armv7/start.o
 .rel.text.powerOff
                0x0000000000000000        0x0 arch/arm/cpu/armv7/start.o
 .rel.text.board_fbt_request_start_fastboot
                0x0000000000047b30       0x18 arch/arm/cpu/armv7/start.o
 .rel.text.board_fbt_run_recovery
                0x0000000000047b48       0x30 arch/arm/cpu/armv7/start.o
 .rel.text.board_fbt_set_reboot_type
                0x0000000000047b78       0x28 arch/arm/cpu/armv7/start.o
 .rel.text.board_fbt_get_reboot_type
                0x0000000000047ba0       0x60 arch/arm/cpu/armv7/start.o
 .rel.text.board_fbt_key_pressed
                0x0000000000047c00       0x18 arch/arm/cpu/armv7/start.o
 .rel.text.board_fbt_finalize_bootargs
                0x0000000000047c18       0x18 arch/arm/cpu/armv7/start.o
 .rel.text.board_fbt_boot_failed
                0x0000000000047c30       0x40 arch/arm/cpu/armv7/start.o
 .rel.text.board_fbt_run_recovery_wipe_data
                0x0000000000047c70       0x28 arch/arm/cpu/armv7/start.o
 .rel.text.read_uboot_cmdline
                0x0000000000047c98        0x8 arch/arm/cpu/armv7/start.o
 .rel.text.read_rotate_flags
                0x0000000000047ca0        0x8 arch/arm/cpu/armv7/start.o
 .rel.text.board_fbt_preboot
                0x0000000000047ca8       0xa8 arch/arm/cpu/armv7/start.o
 .rel.text.MMC_GetMID
                0x0000000000000000        0x0 arch/arm/cpu/armv7/start.o
 .rel.text.MMC_AccessBootPartition
                0x0000000000047d50        0x8 arch/arm/cpu/armv7/start.o
 .rel.text.MMC_SwitchBoot
                0x0000000000047d58        0x8 arch/arm/cpu/armv7/start.o
 .rel.text.MMC_Init
                0x0000000000047d60       0x20 arch/arm/cpu/armv7/start.o
 .rel.text._SD_DecodeCSD
                0x0000000000047d80        0x8 arch/arm/cpu/armv7/start.o
 .rel.text.unlikely._ReadRemainData
                0x0000000000047d88        0x8 arch/arm/cpu/armv7/start.o
 .rel.text._SDCISTHandle
                0x0000000000000000        0x0 arch/arm/cpu/armv7/start.o
 .rel.text.SDC_GetHostBusWidth
                0x0000000000047d90        0x8 arch/arm/cpu/armv7/start.o
 .rel.text.SDC_Init
                0x0000000000047d98        0x8 arch/arm/cpu/armv7/start.o
 .rel.text.SDC_UpdateCardFreq
                0x0000000000047da0        0x8 arch/arm/cpu/armv7/start.o
 .rel.text.SDC_ControlClock
                0x0000000000000000        0x0 arch/arm/cpu/armv7/start.o
 .rel.text.SDC_SetDDRMode
                0x0000000000000000        0x0 arch/arm/cpu/armv7/start.o
 .rel.text.SDC_BusRequest
                0x0000000000047da8        0x8 arch/arm/cpu/armv7/start.o
 .rel.text._DataErrorHandle
                0x0000000000047db0        0x8 arch/arm/cpu/armv7/start.o
 .rel.text._ResponseTimeoutHandle
                0x0000000000047db8        0x8 arch/arm/cpu/armv7/start.o
 .rel.text._SDMMC_Write
                0x0000000000047dc0        0x8 arch/arm/cpu/armv7/start.o
 .rel.text._SDMMC_Read
                0x0000000000047dc8        0x8 arch/arm/cpu/armv7/start.o
 .rel.text._GenerateRCA
                0x0000000000047dd0        0x8 arch/arm/cpu/armv7/start.o
 .rel.text._IsRCAUsable
                0x0000000000047dd8        0x8 arch/arm/cpu/armv7/start.o
 .rel.text.SDM_Init
                0x0000000000047de0        0x8 arch/arm/cpu/armv7/start.o
 .rel.text.SDM_Open
                0x0000000000047de8        0x8 arch/arm/cpu/armv7/start.o
 .rel.text.SDM_Read
                0x0000000000047df0        0x8 arch/arm/cpu/armv7/start.o
 .rel.text.SDM_Write
                0x0000000000047df8        0x8 arch/arm/cpu/armv7/start.o
 .rel.text.SDM_IOCtrl
                0x0000000000047e00       0x98 arch/arm/cpu/armv7/start.o
 .rel.text.SDM_SendCmd
                0x0000000000000000        0x0 arch/arm/cpu/armv7/start.o
 .rel.text.SDOAM_CreateMutex
                0x0000000000047e98       0x10 arch/arm/cpu/armv7/start.o
 .rel.text.SDOAM_CreateEvent
                0x0000000000047ea8       0x10 arch/arm/cpu/armv7/start.o
 .rel.text.SdmmcSDMInit
                0x0000000000000000        0x0 arch/arm/cpu/armv7/start.o
 .rel.text.SdmmcInit
                0x0000000000047eb8       0x28 arch/arm/cpu/armv7/start.o
 .rel.text.SdmmcBootWritePBA
                0x0000000000047ee0       0x10 arch/arm/cpu/armv7/start.o
 .rel.text.SdmmcBootReadPBA
                0x0000000000047ef0       0x10 arch/arm/cpu/armv7/start.o
 .rel.text.SdmmcBootReadLBA
                0x0000000000047f00        0x8 arch/arm/cpu/armv7/start.o
 .rel.text.SdmmcBootWriteLBA
                0x0000000000047f08        0x8 arch/arm/cpu/armv7/start.o
 .rel.text.SdmmcReadFlashInfo
                0x0000000000047f10        0x8 arch/arm/cpu/armv7/start.o
 .rel.text.SdmmcGetCapacity
                0x0000000000047f18        0x8 arch/arm/cpu/armv7/start.o
 .rel.text.SdmmcSysDataLoad
                0x0000000000047f20        0x8 arch/arm/cpu/armv7/start.o
 .rel.text.SdmmcSysDataStore
                0x0000000000047f28        0x8 arch/arm/cpu/armv7/start.o
 .rel.text.SdmmcGetFwOffset
                0x0000000000047f30        0x8 arch/arm/cpu/armv7/start.o
 .rel.text.SdmmcGetSysOffset
                0x0000000000047f38        0x8 arch/arm/cpu/armv7/start.o
 .rel.text.SdmmcGetSDCardBootMode
                0x0000000000047f40        0x8 arch/arm/cpu/armv7/start.o
 .rel.text.BootFromSdCard
                0x0000000000000000        0x0 arch/arm/cpu/armv7/start.o
 .rel.text.SecureBootCheck
                0x0000000000047f48       0x28 arch/arm/cpu/armv7/start.o
 .rel.text.SecureBootUnlock
                0x0000000000047f70       0x10 arch/arm/cpu/armv7/start.o
 .rel.text.SecureBootUnlockCheck
                0x0000000000047f80        0x8 arch/arm/cpu/armv7/start.o
 .rel.text.SecureBootSetSysData2Kernel
                0x0000000000047f88       0x18 arch/arm/cpu/armv7/start.o
 .rel.text.SecureBootSecureState2Kernel
                0x0000000000047fa0        0x8 arch/arm/cpu/armv7/start.o
 .rel.text.SecureNSModeVerifyLoader
                0x0000000000047fa8        0x8 arch/arm/cpu/armv7/start.o
 .rel.text.SecureNSModeSignCheck
                0x0000000000047fb0        0x8 arch/arm/cpu/armv7/start.o
 .rel.text.SecureRKModeVerifyBootImage
                0x0000000000047fb8       0x10 arch/arm/cpu/armv7/start.o
 .rel.text.SecureModeVerifyLoader
                0x0000000000047fc8        0x8 arch/arm/cpu/armv7/start.o
 .rel.text.SecureModeVerifyUbootImage
                0x0000000000047fd0       0x30 arch/arm/cpu/armv7/start.o
 .rel.text.SecureModeVerifyBootImage
                0x0000000000048000       0x28 arch/arm/cpu/armv7/start.o
 .rel.text.SecureModeBootImageCheck
                0x0000000000048028       0x20 arch/arm/cpu/armv7/start.o
 .rel.text.SecureModeRSAKeyCheck
                0x0000000000048048       0x18 arch/arm/cpu/armv7/start.o
 .rel.text.SecureModeLockLoader
                0x0000000000048060       0x18 arch/arm/cpu/armv7/start.o
 .rel.text.SecureModeInit
                0x0000000000048078       0x80 arch/arm/cpu/armv7/start.o
 .rel.text.FW_ReIntForUpdate
                0x00000000000480f8        0x8 arch/arm/cpu/armv7/start.o
 .rel.text.FW_SorageLowFormatEn
                0x0000000000048100        0x8 arch/arm/cpu/armv7/start.o
 .rel.text.FW_SorageLowFormat
                0x0000000000048108       0x18 arch/arm/cpu/armv7/start.o
 .rel.text.FW_StorageGetValid
                0x0000000000048120        0x8 arch/arm/cpu/armv7/start.o
 .rel.text.FW_GetCurEraseBlock
                0x0000000000048128        0x8 arch/arm/cpu/armv7/start.o
 .rel.text.FW_GetTotleBlk
                0x0000000000048130        0x8 arch/arm/cpu/armv7/start.o
 .rel.text.StorageReadPba
                0x0000000000048138        0x8 arch/arm/cpu/armv7/start.o
 .rel.text.StorageWritePba
                0x0000000000048140        0x8 arch/arm/cpu/armv7/start.o
 .rel.text.StorageReadLba
                0x0000000000048148        0x8 arch/arm/cpu/armv7/start.o
 .rel.text.StorageWriteLba
                0x0000000000048150        0x8 arch/arm/cpu/armv7/start.o
 .rel.text.StorageGetCapacity
                0x0000000000048158        0x8 arch/arm/cpu/armv7/start.o
 .rel.text.StorageSysDataLoad
                0x0000000000048160        0x8 arch/arm/cpu/armv7/start.o
 .rel.text.StorageSysDataStore
                0x0000000000048168        0x8 arch/arm/cpu/armv7/start.o
 .rel.text.StorageReadFlashInfo
                0x0000000000048170        0x8 arch/arm/cpu/armv7/start.o
 .rel.text.StorageInit
                0x0000000000048178       0x30 arch/arm/cpu/armv7/start.o
 .rel.text.StorageEraseBlock
                0x00000000000481a8       0x10 arch/arm/cpu/armv7/start.o
 .rel.text.StorageGetBootMedia
                0x00000000000481b8        0x8 arch/arm/cpu/armv7/start.o
 .rel.text.StorageGetSDFwOffset
                0x00000000000481c0        0x8 arch/arm/cpu/armv7/start.o
 .rel.text.StorageGetSDSysOffset
                0x00000000000481c8        0x8 arch/arm/cpu/armv7/start.o
 .rel.text.StorageReadId
                0x00000000000481d0        0x8 arch/arm/cpu/armv7/start.o
 .rel.text.StorageSDCardUpdateMode
                0x00000000000481d8        0x8 arch/arm/cpu/armv7/start.o
 .rel.rodata.memFunTab
                0x00000000000481e0       0x10 arch/arm/cpu/armv7/start.o
 .rel.data.sd0FunOp
                0x00000000000481f0       0x58 arch/arm/cpu/armv7/start.o
 .rel.data.emmcFunOp
                0x0000000000048248       0x60 arch/arm/cpu/armv7/start.o
 .rel.text.board_storage_init
                0x00000000000482a8       0x10 arch/arm/cpu/armv7/start.o
 .rel.text.checkboard
                0x00000000000482b8        0x8 arch/arm/cpu/armv7/start.o
 .rel.text.board_late_init
                0x00000000000482c0       0x40 arch/arm/cpu/armv7/start.o
 .rel.text.main_loop
                0x0000000000048300        0x8 arch/arm/cpu/armv7/start.o
 .rel.text.find_cmd
                0x0000000000048308       0x10 arch/arm/cpu/armv7/start.o
 .rel.text.cmd_usage
                0x0000000000048318       0x18 arch/arm/cpu/armv7/start.o
 .rel.text._do_help
                0x0000000000048330       0x10 arch/arm/cpu/armv7/start.o
 .rel.text.cmd_process
                0x0000000000048340        0x8 arch/arm/cpu/armv7/start.o
 .rel.text.cmd_process_error
                0x0000000000000000        0x0 arch/arm/cpu/armv7/start.o
 .rel.text.jumptable_init
                0x0000000000048348       0x98 arch/arm/cpu/armv7/start.o
 .rel.text.hash_lookup_algo
                0x0000000000000000        0x0 arch/arm/cpu/armv7/start.o
 .rel.text.hash_progressive_lookup_algo
                0x0000000000000000        0x0 arch/arm/cpu/armv7/start.o
 .rel.text.hash_show
                0x0000000000000000        0x0 arch/arm/cpu/armv7/start.o
 .rel.text.hash_command
                0x0000000000000000        0x0 arch/arm/cpu/armv7/start.o
 .rel.text.mapset
                0x00000000000483e0        0x8 arch/arm/cpu/armv7/start.o
 .rel.text.syntax_err
                0x00000000000483e8        0x8 arch/arm/cpu/armv7/start.o
 .rel.text.do_showvar
                0x00000000000483f0       0x20 arch/arm/cpu/armv7/start.o
 .rel.text.xmalloc
                0x0000000000048410        0x8 arch/arm/cpu/armv7/start.o
 .rel.text.xrealloc
                0x0000000000048418        0x8 arch/arm/cpu/armv7/start.o
 .rel.text.done_word
                0x0000000000048420        0x8 arch/arm/cpu/armv7/start.o
 .rel.text.is_assignment
                0x0000000000048428        0x8 arch/arm/cpu/armv7/start.o
 .rel.text.file_get
                0x0000000000048430       0x30 arch/arm/cpu/armv7/start.o
 .rel.text.b_addqchr
                0x0000000000048460        0x8 arch/arm/cpu/armv7/start.o
 .rel.text.get_local_var
                0x0000000000048468       0x20 arch/arm/cpu/armv7/start.o
 .rel.text.set_local_var
                0x0000000000048488       0x20 arch/arm/cpu/armv7/start.o
 .rel.text.insert_var_value_sub
                0x00000000000484a8        0x8 arch/arm/cpu/armv7/start.o
 .rel.text.unset_local_var
                0x0000000000000000        0x0 arch/arm/cpu/armv7/start.o
 .rel.text.parse_string_outer
                0x00000000000484b0       0x18 arch/arm/cpu/armv7/start.o
 .rel.text.run_list_real
                0x00000000000484c8       0x40 arch/arm/cpu/armv7/start.o
 .rel.text.parse_stream_outer
                0x0000000000048508       0x68 arch/arm/cpu/armv7/start.o
 .rel.text.parse_file_outer
                0x0000000000048570       0x10 arch/arm/cpu/armv7/start.o
 .rel.text.u_boot_hush_start
                0x0000000000048580       0x18 arch/arm/cpu/armv7/start.o
 .rel.text.cli_simple_parse_line
                0x0000000000000000        0x0 arch/arm/cpu/armv7/start.o
 .rel.text.cli_simple_run_command
                0x0000000000000000        0x0 arch/arm/cpu/armv7/start.o
 .rel.text.cli_simple_loop
                0x0000000000000000        0x0 arch/arm/cpu/armv7/start.o
 .rel.text.delete_char.part.0
                0x0000000000048598       0x10 arch/arm/cpu/armv7/start.o
 .rel.text.cli_readline_into_buffer
                0x00000000000485a8       0x18 arch/arm/cpu/armv7/start.o
 .rel.text.cli_readline
                0x00000000000485c0        0x8 arch/arm/cpu/armv7/start.o
 .rel.text.bootdelay_process
                0x00000000000485c8       0x18 arch/arm/cpu/armv7/start.o
 .rel.text.autoboot_command
                0x00000000000485e0       0x18 arch/arm/cpu/armv7/start.o
 .rel.text.setup_mon_len
                0x00000000000485f8       0x10 arch/arm/cpu/armv7/start.o
 .rel.text.announce_dram_init
                0x0000000000048608        0x8 arch/arm/cpu/armv7/start.o
 .rel.text.init_baud_rate
                0x0000000000048610        0x8 arch/arm/cpu/armv7/start.o
 .rel.text.show_dram_config
                0x0000000000048618        0x8 arch/arm/cpu/armv7/start.o
 .rel.text.board_init_f
                0x0000000000048620        0x8 arch/arm/cpu/armv7/start.o
 .rel.text.initr_reloc_global_data
                0x0000000000048628       0x18 arch/arm/cpu/armv7/start.o
 .rel.text.initr_env
                0x0000000000048640       0x10 arch/arm/cpu/armv7/start.o
 .rel.text.board_init_r
                0x0000000000048650        0x8 arch/arm/cpu/armv7/start.o
 .rel.text.do_go
                0x0000000000048658       0x10 arch/arm/cpu/armv7/start.o
 .rel.text.do_bootm
                0x0000000000048668       0x18 arch/arm/cpu/armv7/start.o
 .rel.text.bootm_maybe_autostart
                0x0000000000000000        0x0 arch/arm/cpu/armv7/start.o
 .rel.text.bootm_find_ramdisk_fdt
                0x0000000000048680       0x18 arch/arm/cpu/armv7/start.o
 .rel.text.do_bootm_states
                0x0000000000048698       0xc0 arch/arm/cpu/armv7/start.o
 .rel.text.do_bootm_standalone
                0x0000000000048758       0x18 arch/arm/cpu/armv7/start.o
 .rel.text.bootm_os_get_boot_func
                0x0000000000048770        0x8 arch/arm/cpu/armv7/start.o
 .rel.text.do_help
                0x0000000000048778       0x10 arch/arm/cpu/armv7/start.o
 .rel.text.do_version
                0x0000000000048788       0x20 arch/arm/cpu/armv7/start.o
 .rel.text.env_attr_lookup
                0x00000000000487a8        0x8 arch/arm/cpu/armv7/start.o
 .rel.text.on_callbacks
                0x00000000000487b0       0x20 arch/arm/cpu/armv7/start.o
 .rel.text.set_callback
                0x00000000000487d0       0x18 arch/arm/cpu/armv7/start.o
 .rel.text.env_callback_init
                0x00000000000487e8       0x30 arch/arm/cpu/armv7/start.o
 .rel.text.on_flags
                0x0000000000048818       0x20 arch/arm/cpu/armv7/start.o
 .rel.text.env_flags_parse_vartype
                0x0000000000048838       0x10 arch/arm/cpu/armv7/start.o
 .rel.text.env_flags_parse_varaccess
                0x0000000000048848       0x10 arch/arm/cpu/armv7/start.o
 .rel.text.set_flags
                0x0000000000048858       0x10 arch/arm/cpu/armv7/start.o
 .rel.text.env_flags_parse_varaccess_from_binflags
                0x0000000000000000        0x0 arch/arm/cpu/armv7/start.o
 .rel.text.env_flags_init
                0x0000000000048868       0x30 arch/arm/cpu/armv7/start.o
 .rel.text.env_flags_validate
                0x0000000000048898       0x60 arch/arm/cpu/armv7/start.o
 .rel.text.env_init
                0x00000000000488f8        0x8 arch/arm/cpu/armv7/start.o
 .rel.text.saveenv
                0x0000000000048900       0x50 arch/arm/cpu/armv7/start.o
 .rel.text.env_relocate_spec
                0x0000000000048950       0x30 arch/arm/cpu/armv7/start.o
 .rel.text.do_bmp
                0x0000000000048980        0x8 arch/arm/cpu/armv7/start.o
 .rel.text.do_bmp_info
                0x0000000000048988       0x28 arch/arm/cpu/armv7/start.o
 .rel.text.bmp_display
                0x00000000000489b0        0x8 arch/arm/cpu/armv7/start.o
 .rel.text.do_bmp_display
                0x00000000000489b8        0x8 arch/arm/cpu/armv7/start.o
 .rel.text.fdt_valid
                0x00000000000489c0       0x28 arch/arm/cpu/armv7/start.o
 .rel.text.is_printable_string
                0x00000000000489e8        0x8 arch/arm/cpu/armv7/start.o
 .rel.text.print_data
                0x00000000000489f0       0x58 arch/arm/cpu/armv7/start.o
 .rel.text.set_working_fdt_addr
                0x0000000000048a48       0x10 arch/arm/cpu/armv7/start.o
 .rel.text.do_fdt
                0x0000000000048a58      0x248 arch/arm/cpu/armv7/start.o
 .rel.text.of_bus_default_count_cells
                0x0000000000000000        0x0 arch/arm/cpu/armv7/start.o
 .rel.text.fdt_find_or_add_subnode.constprop.6
                0x0000000000048ca0       0x10 arch/arm/cpu/armv7/start.o
 .rel.text.fdt_initrd
                0x0000000000048cb0       0x38 arch/arm/cpu/armv7/start.o
 .rel.text.fdt_chosen
                0x0000000000048ce8       0x40 arch/arm/cpu/armv7/start.o
 .rel.text.do_fixup_by_path
                0x0000000000048d28        0x8 arch/arm/cpu/armv7/start.o
 .rel.text.fdt_fixup_memory_banks
                0x0000000000048d30       0x48 arch/arm/cpu/armv7/start.o
 .rel.text.fdt_fixup_ethernet
                0x0000000000048d78       0x38 arch/arm/cpu/armv7/start.o
 .rel.text.fdt_del_node_and_alias
                0x0000000000000000        0x0 arch/arm/cpu/armv7/start.o
 .rel.text.fdt_translate_address
                0x0000000000000000        0x0 arch/arm/cpu/armv7/start.o
 .rel.text.fdt_node_offset_by_compat_reg
                0x0000000000000000        0x0 arch/arm/cpu/armv7/start.o
 .rel.text.fdt_set_phandle
                0x0000000000000000        0x0 arch/arm/cpu/armv7/start.o
 .rel.text.fdt_create_phandle
                0x0000000000000000        0x0 arch/arm/cpu/armv7/start.o
 .rel.text.fdt_set_node_status
                0x0000000000000000        0x0 arch/arm/cpu/armv7/start.o
 .rel.text.fdt_add_edid
                0x0000000000000000        0x0 arch/arm/cpu/armv7/start.o
 .rel.text.fdt_verify_alias_address
                0x0000000000000000        0x0 arch/arm/cpu/armv7/start.o
 .rel.text.fdt_get_base_address
                0x0000000000000000        0x0 arch/arm/cpu/armv7/start.o
 .rel.text.fdt_read_range
                0x0000000000000000        0x0 arch/arm/cpu/armv7/start.o
 .rel.text.getvar_version
                0x0000000000048db0        0x8 arch/arm/cpu/armv7/start.o
 .rel.text.getvar_version_baseband
                0x0000000000048db8        0x8 arch/arm/cpu/armv7/start.o
 .rel.text.getvar_version_bootloader
                0x0000000000048dc0        0x8 arch/arm/cpu/armv7/start.o
 .rel.text.getvar_unlocked
                0x0000000000048dc8       0x18 arch/arm/cpu/armv7/start.o
 .rel.text.getvar_secure
                0x0000000000048de0       0x18 arch/arm/cpu/armv7/start.o
 .rel.text.getvar_product
                0x0000000000048df8        0x8 arch/arm/cpu/armv7/start.o
 .rel.text.getvar_serialno
                0x0000000000048e00        0x8 arch/arm/cpu/armv7/start.o
 .rel.text.getvar_checksum
                0x0000000000048e08       0x38 arch/arm/cpu/armv7/start.o
 .rel.text.getvar_partition_offset
                0x0000000000048e40       0x18 arch/arm/cpu/armv7/start.o
 .rel.text.getvar_partition_size
                0x0000000000048e58       0x18 arch/arm/cpu/armv7/start.o
 .rel.text.getvar_partition_type
                0x0000000000048e70       0x20 arch/arm/cpu/armv7/start.o
 .rel.text.fbt_handle_erase
                0x0000000000048e90       0x38 arch/arm/cpu/armv7/start.o
 .rel.text.fbt_set_unlocked
                0x0000000000048ec8       0x20 arch/arm/cpu/armv7/start.o
 .rel.text.fbt_handle_response
                0x0000000000048ee8       0x40 arch/arm/cpu/armv7/start.o
 .rel.text.fbt_handle_reboot
                0x0000000000048f28       0x30 arch/arm/cpu/armv7/start.o
 .rel.text.fbt_send_raw_info
                0x0000000000048f58       0x20 arch/arm/cpu/armv7/start.o
 .rel.text.do_fastboot
                0x0000000000048f78      0x320 arch/arm/cpu/armv7/start.o
 .rel.text.fbt_receive_firstcmd
                0x0000000000049298        0x8 arch/arm/cpu/armv7/start.o
 .rel.text.fbt_event_handler
                0x00000000000492a0       0x60 arch/arm/cpu/armv7/start.o
 .rel.text.fbt_fastboot_init
                0x0000000000049300       0x40 arch/arm/cpu/armv7/start.o
 .rel.text.fbt_log
                0x0000000000000000        0x0 arch/arm/cpu/armv7/start.o
 .rel.text.do_bootrk
                0x0000000000049340      0x1c0 arch/arm/cpu/armv7/start.o
 .rel.text.rkusb_send_csw
                0x0000000000049500       0x20 arch/arm/cpu/armv7/start.o
 .rel.text.rkusb_receive_firstcbw
                0x0000000000049520       0x10 arch/arm/cpu/armv7/start.o
 .rel.text.rkusb_event_handler
                0x0000000000049530       0x60 arch/arm/cpu/armv7/start.o
 .rel.text.FW_ReadID
                0x0000000000049590       0x20 arch/arm/cpu/armv7/start.o
 .rel.text.do_rockusb_cmd
                0x00000000000495b0       0x18 arch/arm/cpu/armv7/start.o
 .rel.text.rkusb_handle_datarx
                0x00000000000495c8       0x20 arch/arm/cpu/armv7/start.o
 .rel.text.rkusb_handle_datatx
                0x00000000000495e8       0x18 arch/arm/cpu/armv7/start.o
 .rel.text.do_rockusb
                0x0000000000049600      0x128 arch/arm/cpu/armv7/start.o
 .rel.text.get_entry_ram
                0x0000000000049728       0x38 arch/arm/cpu/armv7/start.o
 .rel.text.get_content
                0x0000000000049760       0x58 arch/arm/cpu/armv7/start.o
 .rel.text.show_resource_image
                0x00000000000497b8       0x28 arch/arm/cpu/armv7/start.o
 .rel.text.lcd_set_flush_dcache
                0x0000000000000000        0x0 arch/arm/cpu/armv7/start.o
 .rel.text.lcd_get_size
                0x00000000000497e0        0x8 arch/arm/cpu/armv7/start.o
 .rel.text.lcd_sync
                0x00000000000497e8       0x10 arch/arm/cpu/armv7/start.o
 .rel.text.lcd_enable_logo
                0x00000000000497f8        0x8 arch/arm/cpu/armv7/start.o
 .rel.text.lcd_enable_flip
                0x0000000000000000        0x0 arch/arm/cpu/armv7/start.o
 .rel.text.drv_lcd_init
                0x0000000000049800       0x28 arch/arm/cpu/armv7/start.o
 .rel.text.lcd_setcolor_bypix
                0x0000000000049828        0x8 arch/arm/cpu/armv7/start.o
 .rel.text.lcd_setba
                0x0000000000000000        0x0 arch/arm/cpu/armv7/start.o
 .rel.text.bitmap_plot
                0x0000000000049830       0x28 arch/arm/cpu/armv7/start.o
 .rel.text.lcd_logo
                0x0000000000049858       0x18 arch/arm/cpu/armv7/start.o
 .rel.text.LCD_clear
                0x0000000000049870       0x20 arch/arm/cpu/armv7/start.o
 .rel.text.lcd_clear
                0x0000000000049890       0x38 arch/arm/cpu/armv7/start.o
 .rel.text.do_lcd_clear
                0x00000000000498c8        0x8 arch/arm/cpu/armv7/start.o
 .rel.text.lcd_display_bitmap
                0x00000000000498d0       0x38 arch/arm/cpu/armv7/start.o
 .rel.text.lcd_display_bitmap_center
                0x0000000000049908       0x10 arch/arm/cpu/armv7/start.o
 .rel.text.lcd_get_pixel_width
                0x0000000000000000        0x0 arch/arm/cpu/armv7/start.o
 .rel.text.lcd_get_pixel_height
                0x0000000000000000        0x0 arch/arm/cpu/armv7/start.o
 .rel.text.do_env_delete
                0x0000000000049918       0x10 arch/arm/cpu/armv7/start.o
 .rel.text.env_print
                0x0000000000049928       0x18 arch/arm/cpu/armv7/start.o
 .rel.text.do_env_print
                0x0000000000049940       0x10 arch/arm/cpu/armv7/start.o
 .rel.text.do_env
                0x0000000000049950        0x8 arch/arm/cpu/armv7/start.o
 .rel.text.do_env_import
                0x0000000000049958       0x58 arch/arm/cpu/armv7/start.o
 .rel.text.do_env_default
                0x00000000000499b0        0x8 arch/arm/cpu/armv7/start.o
 .rel.text.do_env_save
                0x00000000000499b8       0x10 arch/arm/cpu/armv7/start.o
 .rel.text._do_env_set.isra.1
                0x00000000000499c8       0x30 arch/arm/cpu/armv7/start.o
 .rel.text.get_env_id
                0x0000000000000000        0x0 arch/arm/cpu/armv7/start.o
 .rel.text.setenv
                0x00000000000499f8        0x8 arch/arm/cpu/armv7/start.o
 .rel.text.setenv_hex
                0x0000000000049a00        0x8 arch/arm/cpu/armv7/start.o
 .rel.text.do_env_export
                0x0000000000049a08       0x40 arch/arm/cpu/armv7/start.o
 .rel.text.getenv_f
                0x0000000000049a48        0x8 arch/arm/cpu/armv7/start.o
 .rel.text.getenv
                0x0000000000049a50        0x8 arch/arm/cpu/armv7/start.o
 .rel.text.env_get_addr
                0x0000000000049a58        0x8 arch/arm/cpu/armv7/start.o
 .rel.text.env_get_char
                0x0000000000049a60        0x8 arch/arm/cpu/armv7/start.o
 .rel.text.set_default_env
                0x0000000000049a68       0x40 arch/arm/cpu/armv7/start.o
 .rel.text.set_default_vars
                0x0000000000049aa8       0x10 arch/arm/cpu/armv7/start.o
 .rel.text.env_import
                0x0000000000000000        0x0 arch/arm/cpu/armv7/start.o
 .rel.text.env_export
                0x0000000000000000        0x0 arch/arm/cpu/armv7/start.o
 .rel.text.env_relocate
                0x0000000000049ab8        0x8 arch/arm/cpu/armv7/start.o
 .rel.text.console_setfile
                0x0000000000049ac0       0x30 arch/arm/cpu/armv7/start.o
 .rel.text.puts
                0x0000000000049af0        0x8 arch/arm/cpu/armv7/start.o
 .rel.text.fgetc
                0x0000000000049af8        0x8 arch/arm/cpu/armv7/start.o
 .rel.text.ftstc
                0x0000000000049b00        0x8 arch/arm/cpu/armv7/start.o
 .rel.text.fputc
                0x0000000000049b08        0x8 arch/arm/cpu/armv7/start.o
 .rel.text.fputs
                0x0000000000000000        0x0 arch/arm/cpu/armv7/start.o
 .rel.text.ctrlc
                0x0000000000049b10       0x10 arch/arm/cpu/armv7/start.o
 .rel.text.confirm_yesno
                0x0000000000000000        0x0 arch/arm/cpu/armv7/start.o
 .rel.text.disable_ctrlc
                0x0000000000000000        0x0 arch/arm/cpu/armv7/start.o
 .rel.text.had_ctrlc
                0x0000000000049b20        0x8 arch/arm/cpu/armv7/start.o
 .rel.text.clear_ctrlc
                0x0000000000049b28        0x8 arch/arm/cpu/armv7/start.o
 .rel.text.on_console
                0x0000000000049b30       0x20 arch/arm/cpu/armv7/start.o
 .rel.text.console_init_r
                0x0000000000049b50       0x48 arch/arm/cpu/armv7/start.o
 .rel.text.sbrk
                0x0000000000049b98       0x18 arch/arm/cpu/armv7/start.o
 .rel.text.mem_malloc_init
                0x0000000000049bb0       0x18 arch/arm/cpu/armv7/start.o
 .rel.text.malloc_trim
                0x0000000000049bc8       0x18 arch/arm/cpu/armv7/start.o
 .rel.text.free
                0x0000000000049be0       0x18 arch/arm/cpu/armv7/start.o
 .rel.text.malloc
                0x0000000000049bf8       0x40 arch/arm/cpu/armv7/start.o
 .rel.text.realloc
                0x0000000000049c38        0x8 arch/arm/cpu/armv7/start.o
 .rel.text.mallopt
                0x0000000000000000        0x0 arch/arm/cpu/armv7/start.o
 .rel.text.on_loadaddr
                0x0000000000049c40        0x8 arch/arm/cpu/armv7/start.o
 .rel.text.getenv_bootm_low
                0x0000000000049c48        0x8 arch/arm/cpu/armv7/start.o
 .rel.text.getenv_bootm_size
                0x0000000000049c50       0x10 arch/arm/cpu/armv7/start.o
 .rel.text.getenv_bootm_mapsize
                0x0000000000049c60        0x8 arch/arm/cpu/armv7/start.o
 .rel.text.genimg_print_size
                0x0000000000049c68       0x10 arch/arm/cpu/armv7/start.o
 .rel.text.genimg_get_os_name
                0x0000000000049c78       0x10 arch/arm/cpu/armv7/start.o
 .rel.text.genimg_get_arch_name
                0x0000000000049c88       0x10 arch/arm/cpu/armv7/start.o
 .rel.text.genimg_get_type_name
                0x0000000000049c98       0x10 arch/arm/cpu/armv7/start.o
 .rel.text.genimg_get_comp_name
                0x0000000000049ca8       0x10 arch/arm/cpu/armv7/start.o
 .rel.text.image_print_contents
                0x0000000000049cb8       0x50 arch/arm/cpu/armv7/start.o
 .rel.text.genimg_get_os_id
                0x0000000000000000        0x0 arch/arm/cpu/armv7/start.o
 .rel.text.genimg_get_arch_id
                0x0000000000000000        0x0 arch/arm/cpu/armv7/start.o
 .rel.text.genimg_get_type_id
                0x0000000000000000        0x0 arch/arm/cpu/armv7/start.o
 .rel.text.genimg_get_comp_id
                0x0000000000000000        0x0 arch/arm/cpu/armv7/start.o
 .rel.text.genimg_get_kernel_addr_fit
                0x0000000000049d08        0x8 arch/arm/cpu/armv7/start.o
 .rel.text.boot_get_ramdisk
                0x0000000000049d10       0x50 arch/arm/cpu/armv7/start.o
 .rel.text.boot_ramdisk_high
                0x0000000000049d60       0x20 arch/arm/cpu/armv7/start.o
 .rel.text.fdt_error
                0x0000000000049d80       0x10 arch/arm/cpu/armv7/start.o
 .rel.text.boot_fdt_add_mem_rsv_regions
                0x0000000000049d90        0x8 arch/arm/cpu/armv7/start.o
 .rel.text.boot_relocate_fdt
                0x0000000000049d98       0x40 arch/arm/cpu/armv7/start.o
 .rel.text.boot_get_fdt
                0x0000000000049dd8       0x80 arch/arm/cpu/armv7/start.o
 .rel.text.image_setup_libfdt
                0x0000000000049e58       0x18 arch/arm/cpu/armv7/start.o
 .rel.text.stdio_get_list
                0x0000000000000000        0x0 arch/arm/cpu/armv7/start.o
 .rel.text.stdio_get_by_name
                0x0000000000049e70        0x8 arch/arm/cpu/armv7/start.o
 .rel.text.stdio_register_dev
                0x0000000000049e78        0x8 arch/arm/cpu/armv7/start.o
 .rel.text.stdio_init_tables
                0x0000000000049e80        0x8 arch/arm/cpu/armv7/start.o
 .rel.text.stdio_add_devices
                0x0000000000049e88       0x28 arch/arm/cpu/armv7/start.o
 .rel.rodata.boot_os
                0x0000000000049eb0       0x10 arch/arm/cpu/armv7/start.o
 .rel.rodata.getvar_table
                0x0000000000049ec0       0xb0 arch/arm/cpu/armv7/start.o
 .rel.rodata.uimage_comp
                0x0000000000049f70       0x60 arch/arm/cpu/armv7/start.o
 .rel.rodata.uimage_os
                0x0000000000049fd0       0x20 arch/arm/cpu/armv7/start.o
 .rel.rodata.uimage_arch
                0x0000000000049ff0       0x30 arch/arm/cpu/armv7/start.o
 .rel.rodata.uimage_type
                0x000000000004a020       0x20 arch/arm/cpu/armv7/start.o
 .rel.data.hash_algo
                0x0000000000000000        0x0 arch/arm/cpu/armv7/start.o
 .rel.data.reserved_list
                0x000000000004a040       0x58 arch/arm/cpu/armv7/start.o
 .rel.u_boot_list_2_cmd_2_showvar
                0x000000000004a098       0x20 arch/arm/cpu/armv7/start.o
 .rel.data.init_sequence_f
                0x000000000004a0b8      0x118 arch/arm/cpu/armv7/start.o
 .rel.data.init_sequence_r
                0x000000000004a1d0       0xb8 arch/arm/cpu/armv7/start.o
 .rel.u_boot_list_2_cmd_2_go
                0x000000000004a288       0x20 arch/arm/cpu/armv7/start.o
 .rel.u_boot_list_2_cmd_2_reset
                0x000000000004a2a8       0x20 arch/arm/cpu/armv7/start.o
 .rel.u_boot_list_2_cmd_2_bootm
                0x000000000004a2c8       0x20 arch/arm/cpu/armv7/start.o
 .rel.data.cmd_bootm_sub
                0x000000000004a2e8       0xd8 arch/arm/cpu/armv7/start.o
 .rel.u_boot_list_2_cmd_2_question_mark
                0x000000000004a3c0       0x20 arch/arm/cpu/armv7/start.o
 .rel.u_boot_list_2_cmd_2_help
                0x000000000004a3e0       0x20 arch/arm/cpu/armv7/start.o
 .rel.u_boot_list_2_cmd_2_version
                0x000000000004a400       0x20 arch/arm/cpu/armv7/start.o
 .rel.u_boot_list_2_env_clbk_2_callbacks
                0x000000000004a420       0x10 arch/arm/cpu/armv7/start.o
 .rel.u_boot_list_2_env_clbk_2_flags
                0x000000000004a430       0x10 arch/arm/cpu/armv7/start.o
 .rel.data.env_name_spec
                0x000000000004a440        0x8 arch/arm/cpu/armv7/start.o
 .rel.data.cmd_bmp_sub
                0x000000000004a448       0x40 arch/arm/cpu/armv7/start.o
 .rel.u_boot_list_2_cmd_2_bmp
                0x000000000004a488       0x20 arch/arm/cpu/armv7/start.o
 .rel.u_boot_list_2_cmd_2_exit
                0x000000000004a4a8       0x20 arch/arm/cpu/armv7/start.o
 .rel.u_boot_list_2_cmd_2_fdt
                0x000000000004a4c8       0x20 arch/arm/cpu/armv7/start.o
 .rel.data.of_busses
                0x0000000000000000        0x0 arch/arm/cpu/armv7/start.o
 .rel.u_boot_list_2_cmd_2_fastboot
                0x000000000004a4e8       0x18 arch/arm/cpu/armv7/start.o
 .rel.u_boot_list_2_cmd_2_bootrk
                0x000000000004a500       0x20 arch/arm/cpu/armv7/start.o
 .rel.u_boot_list_2_cmd_2_rockusb
                0x000000000004a520       0x20 arch/arm/cpu/armv7/start.o
 .rel.u_boot_list_2_cmd_2_cls
                0x000000000004a540       0x20 arch/arm/cpu/armv7/start.o
 .rel.u_boot_list_2_cmd_2_setenv
                0x000000000004a560       0x20 arch/arm/cpu/armv7/start.o
 .rel.u_boot_list_2_cmd_2_env
                0x000000000004a580       0x20 arch/arm/cpu/armv7/start.o
 .rel.u_boot_list_2_cmd_2_saveenv
                0x000000000004a5a0       0x20 arch/arm/cpu/armv7/start.o
 .rel.data.cmd_env_sub
                0x000000000004a5c0       0xe0 arch/arm/cpu/armv7/start.o
 .rel.u_boot_list_2_cmd_2_printenv
                0x000000000004a6a0       0x20 arch/arm/cpu/armv7/start.o
 .rel.data.env_htab
                0x000000000004a6c0        0x8 arch/arm/cpu/armv7/start.o
 .rel.u_boot_list_2_env_clbk_2_console
                0x000000000004a6c8       0x10 arch/arm/cpu/armv7/start.o
 .rel.data.av_  0x000000000004a6d8      0x800 arch/arm/cpu/armv7/start.o
 .rel.u_boot_list_2_env_clbk_2_loadaddr
                0x000000000004aed8       0x10 arch/arm/cpu/armv7/start.o
 .rel.data.stdio_names
                0x0000000000000000        0x0 arch/arm/cpu/armv7/start.o
 .rel.text.rk_fb_find_lcdc_node_dt
                0x000000000004aee8       0x20 arch/arm/cpu/armv7/start.o
 .rel.text.rk_fb_pwr_ctr_parse_dt
                0x000000000004af08       0x38 arch/arm/cpu/armv7/start.o
 .rel.text.rk_fb_parse_dt
                0x000000000004af40       0xb8 arch/arm/cpu/armv7/start.o
 .rel.text.lcd_ctrl_init
                0x000000000004aff8       0x10 arch/arm/cpu/armv7/start.o
 .rel.text.lcd_pandispaly
                0x000000000004b008        0x8 arch/arm/cpu/armv7/start.o
 .rel.text.rk_lcdc_set_par
                0x000000000004b010       0x20 arch/arm/cpu/armv7/start.o
 .rel.text.rk_lcdc_load_screen
                0x000000000004b030        0x8 arch/arm/cpu/armv7/start.o
 .rel.text.rk_lcdc_standby
                0x000000000004b038       0x10 arch/arm/cpu/armv7/start.o
 .rel.text.rk_lcdc_init
                0x000000000004b048       0x28 arch/arm/cpu/armv7/start.o
 .rel.text.rk32_edp_enable
                0x000000000004b070       0x30 arch/arm/cpu/armv7/start.o
 .rel.text.rk32_edp_init_analog_func
                0x000000000004b0a0        0x8 arch/arm/cpu/armv7/start.o
 .rel.text.rk32_edp_start_aux_transaction
                0x000000000004b0a8       0x18 arch/arm/cpu/armv7/start.o
 .rel.text.rk32_edp_write_byte_to_dpcd
                0x0000000000000000        0x0 arch/arm/cpu/armv7/start.o
 .rel.text.rk32_edp_read_byte_from_dpcd
                0x000000000004b0c0        0x8 arch/arm/cpu/armv7/start.o
 .rel.text.rk32_edp_write_bytes_to_dpcd
                0x0000000000000000        0x0 arch/arm/cpu/armv7/start.o
 .rel.text.rk32_edp_read_bytes_from_dpcd
                0x0000000000000000        0x0 arch/arm/cpu/armv7/start.o
 .rel.text.rk32_edp_select_i2c_device
                0x0000000000000000        0x0 arch/arm/cpu/armv7/start.o
 .rel.text.rk32_edp_read_byte_from_i2c
                0x0000000000000000        0x0 arch/arm/cpu/armv7/start.o
 .rel.text.rk32_edp_read_bytes_from_i2c
                0x0000000000000000        0x0 arch/arm/cpu/armv7/start.o
 .rel.text.rk32_edp_set_training_pattern
                0x0000000000000000        0x0 arch/arm/cpu/armv7/start.o
 .rel.text.rk32_edp_is_slave_video_stream_clock_on
                0x000000000004b0c8        0x8 arch/arm/cpu/armv7/start.o
 .rel.text.rk_mipi_screen
                0x000000000004b0d0       0x10 arch/arm/cpu/armv7/start.o
 .rel.text.rk_mipi_screen_standby
                0x000000000004b0e0        0x8 arch/arm/cpu/armv7/start.o
 .rel.text.rk_mipi_get_dsi_num
                0x000000000004b0e8        0x8 arch/arm/cpu/armv7/start.o
 .rel.text.rk_mipi_get_dsi_lane
                0x000000000004b0f0        0x8 arch/arm/cpu/armv7/start.o
 .rel.text.rk_mipi_get_dsi_clk
                0x000000000004b0f8        0x8 arch/arm/cpu/armv7/start.o
 .rel.text.rk_mipi_screen_probe
                0x000000000004b100       0x70 arch/arm/cpu/armv7/start.o
 .rel.text.rk32_dsi_set_bits
                0x000000000004b170       0x20 arch/arm/cpu/armv7/start.o
 .rel.text.rk32_mipi_dsi_host_power_up
                0x000000000004b190       0x18 arch/arm/cpu/armv7/start.o
 .rel.text.rk32_mipi_dsi_send_packet
                0x000000000004b1a8       0x20 arch/arm/cpu/armv7/start.o
 .rel.text.rk32_phy_power_up
                0x000000000004b1c8       0x20 arch/arm/cpu/armv7/start.o
 .rel.text.rk_mipi_dsi_init
                0x000000000004b1e8       0x18 arch/arm/cpu/armv7/start.o
 .rel.text.rk32_mipi_dsi_power_down
                0x000000000004b200       0x18 arch/arm/cpu/armv7/start.o
 .rel.text.rk32_dsi_disable
                0x000000000004b218        0x8 arch/arm/cpu/armv7/start.o
 .rel.text.rk32_dsi_enable
                0x000000000004b220        0x8 arch/arm/cpu/armv7/start.o
 .rel.text.rk_dsi_host_parse_dt
                0x000000000004b228       0x20 arch/arm/cpu/armv7/start.o
 .rel.text.rk32_mipi_enable
                0x000000000004b248       0x88 arch/arm/cpu/armv7/start.o
 .rel.text.register_dsi_ops
                0x000000000004b2d0        0x8 arch/arm/cpu/armv7/start.o
 .rel.text.del_dsi_ops
                0x0000000000000000        0x0 arch/arm/cpu/armv7/start.o
 .rel.text.dsi_probe_current_chip
                0x000000000004b2d8       0x28 arch/arm/cpu/armv7/start.o
 .rel.text.dsi_power_up
                0x0000000000000000        0x0 arch/arm/cpu/armv7/start.o
 .rel.text.dsi_power_off
                0x000000000004b300        0x8 arch/arm/cpu/armv7/start.o
 .rel.text.dsi_set_regs
                0x0000000000000000        0x0 arch/arm/cpu/armv7/start.o
 .rel.text.dsi_init
                0x000000000004b308        0x8 arch/arm/cpu/armv7/start.o
 .rel.text.dsi_enable_video_mode
                0x000000000004b310        0x8 arch/arm/cpu/armv7/start.o
 .rel.text.dsi_enable_command_mode
                0x000000000004b318        0x8 arch/arm/cpu/armv7/start.o
 .rel.text.dsi_enable_hs_clk
                0x000000000004b320        0x8 arch/arm/cpu/armv7/start.o
 .rel.text.dsi_is_active
                0x000000000004b328        0x8 arch/arm/cpu/armv7/start.o
 .rel.text.dsi_is_enable
                0x000000000004b330        0x8 arch/arm/cpu/armv7/start.o
 .rel.text.dsi_send_dcs_packet
                0x0000000000000000        0x0 arch/arm/cpu/armv7/start.o
 .rel.text.dsi_read_dcs_packet
                0x0000000000000000        0x0 arch/arm/cpu/armv7/start.o
 .rel.text.dsi_send_packet
                0x000000000004b338        0x8 arch/arm/cpu/armv7/start.o
 .rel.text.input_send_keycodes
                0x0000000000000000        0x0 arch/arm/cpu/armv7/start.o
 .rel.text.input_init
                0x0000000000000000        0x0 arch/arm/cpu/armv7/start.o
 .rel.text.input_stdio_register
                0x0000000000000000        0x0 arch/arm/cpu/armv7/start.o
 .rel.rodata.kbd_to_ansi364
                0x0000000000000000        0x0 arch/arm/cpu/armv7/start.o
 .rel.text.rk_gpio_id_to_bank
                0x000000000004b340        0x8 arch/arm/cpu/armv7/start.o
 .rel.text.rk_gpio_base_to_bank
                0x000000000004b348        0x8 arch/arm/cpu/armv7/start.o
 .rel.text.rk_gpio_gpio_to_irq
                0x0000000000000000        0x0 arch/arm/cpu/armv7/start.o
 .rel.text.rk_gpio_irq_to_gpio
                0x000000000004b350        0x8 arch/arm/cpu/armv7/start.o
 .rel.text.gpio_drive_slector
                0x0000000000000000        0x0 arch/arm/cpu/armv7/start.o
 .rel.text.rk_i2c_send_start_bit
                0x000000000004b358        0x8 arch/arm/cpu/armv7/start.o
 .rel.text.rk_i2c_send_stop_bit
                0x000000000004b360        0x8 arch/arm/cpu/armv7/start.o
 .rel.text.rk_i2c_write
                0x000000000004b368        0x8 arch/arm/cpu/armv7/start.o
 .rel.text.rk_i2c_set_clk.part.1
                0x000000000004b370        0x8 arch/arm/cpu/armv7/start.o
 .rel.text.i2c_get_bus_num
                0x0000000000000000        0x0 arch/arm/cpu/armv7/start.o
 .rel.text.i2c_set_bus_num
                0x000000000004b378       0x10 arch/arm/cpu/armv7/start.o
 .rel.text.i2c_read
                0x000000000004b388       0x38 arch/arm/cpu/armv7/start.o
 .rel.text.i2c_write
                0x000000000004b3c0       0x28 arch/arm/cpu/armv7/start.o
 .rel.text.i2c_probe
                0x000000000004b3e8       0x20 arch/arm/cpu/armv7/start.o
 .rel.text.i2c_init
                0x000000000004b408       0x20 arch/arm/cpu/armv7/start.o
 .rel.text.i2c_set_bus_speed
                0x000000000004b428       0x20 arch/arm/cpu/armv7/start.o
 .rel.text.i2c_get_bus_num_fdt
                0x000000000004b448       0x18 arch/arm/cpu/armv7/start.o
 .rel.text.check_reg
                0x000000000004b460        0x8 arch/arm/cpu/armv7/start.o
 .rel.text.pmic_alloc
                0x000000000004b468       0x18 arch/arm/cpu/armv7/start.o
 .rel.text.pmic_get
                0x000000000004b480        0x8 arch/arm/cpu/armv7/start.o
 .rel.text.power_get_interface
                0x000000000004b488        0x8 arch/arm/cpu/armv7/start.o
 .rel.text.do_pmic
                0x000000000004b490       0x98 arch/arm/cpu/armv7/start.o
 .rel.text.fdt_regulator_match
                0x000000000004b528       0x28 arch/arm/cpu/armv7/start.o
 .rel.text.fdt_get_regulator_node
                0x000000000004b550        0x8 arch/arm/cpu/armv7/start.o
 .rel.text.fdt_get_i2c_info
                0x000000000004b558        0x8 arch/arm/cpu/armv7/start.o
 .rel.text.get_rockchip_pmic_id
                0x0000000000000000        0x0 arch/arm/cpu/armv7/start.o
 .rel.text.get_power_bat_status
                0x000000000004b560       0x10 arch/arm/cpu/armv7/start.o
 .rel.text.pmic_charger_setting
                0x0000000000000000        0x0 arch/arm/cpu/armv7/start.o
 .rel.text.is_power_low
                0x000000000004b570        0x8 arch/arm/cpu/armv7/start.o
 .rel.text.pmic_init
                0x000000000004b578       0x50 arch/arm/cpu/armv7/start.o
 .rel.text.fg_init
                0x000000000004b5c8        0x8 arch/arm/cpu/armv7/start.o
 .rel.text.shut_down
                0x000000000004b5d0       0x30 arch/arm/cpu/armv7/start.o
 .rel.text.pmic_reg_write
                0x000000000004b600       0x10 arch/arm/cpu/armv7/start.o
 .rel.text.pmic_reg_read
                0x000000000004b610       0x10 arch/arm/cpu/armv7/start.o
 .rel.text.pmic_probe
                0x0000000000000000        0x0 arch/arm/cpu/armv7/start.o
 .rel.rodata.fg_names
                0x000000000004b620       0x30 arch/arm/cpu/armv7/start.o
 .rel.u_boot_list_2_cmd_2_pmic
                0x000000000004b650       0x20 arch/arm/cpu/armv7/start.o
 .rel.data.pmic_list
                0x000000000004b670       0x10 arch/arm/cpu/armv7/start.o
 .rel.text.grf_uoc_set_field
                0x000000000004b680       0x10 arch/arm/cpu/armv7/start.o
 .rel.text.dwc_otg_check_dpdm
                0x000000000004b690      0x128 arch/arm/cpu/armv7/start.o
 .rel.text.cw201x_check_battery
                0x000000000004b7b8       0x10 arch/arm/cpu/armv7/start.o
 .rel.text.cw201x_update_battery
                0x000000000004b7c8       0x20 arch/arm/cpu/armv7/start.o
 .rel.text.fg_cw201x_init
                0x000000000004b7e8       0x38 arch/arm/cpu/armv7/start.o
 .rel.text.get_capcity
                0x000000000004b820       0x20 arch/arm/cpu/armv7/start.o
 .rel.text.ricoh619_update_battery
                0x000000000004b840       0x20 arch/arm/cpu/armv7/start.o
 .rel.text.fg_ricoh619_init
                0x000000000004b860       0x18 arch/arm/cpu/armv7/start.o
 .rel.text.rk81x_bat_read
                0x000000000004b878        0x8 arch/arm/cpu/armv7/start.o
 .rel.text.rk81x_bat_write.isra.1
                0x000000000004b880        0x8 arch/arm/cpu/armv7/start.o
 .rel.text.rk81x_bat_get_fcc.constprop.46
                0x000000000004b888        0x8 arch/arm/cpu/armv7/start.o
 .rel.text.rk81x_bat_vol_to_cap.constprop.47
                0x000000000004b890        0x8 arch/arm/cpu/armv7/start.o
 .rel.text.rk81x_bat_get_vol.constprop.52
                0x000000000004b898        0x8 arch/arm/cpu/armv7/start.o
 .rel.text.rk81x_bat_get_ocv_vol.constprop.53
                0x000000000004b8a0        0x8 arch/arm/cpu/armv7/start.o
 .rel.text.rk81x_bat_get_rsoc.constprop.55
                0x000000000004b8a8        0x8 arch/arm/cpu/armv7/start.o
 .rel.text.rk81x_bat_get_charger_type.constprop.34
                0x000000000004b8b0       0x10 arch/arm/cpu/armv7/start.o
 .rel.text.rk81x_batttery_update
                0x000000000004b8c0       0x28 arch/arm/cpu/armv7/start.o
 .rel.text.is_rk81x_fg_init
                0x000000000004b8e8        0x8 arch/arm/cpu/armv7/start.o
 .rel.text.fg_rk818_init
                0x000000000004b8f0      0x110 arch/arm/cpu/armv7/start.o
 .rel.data.cw201x_fg_ops
                0x000000000004ba00       0x10 arch/arm/cpu/armv7/start.o
 .rel.data.fg_ops
                0x000000000004ba10       0x20 arch/arm/cpu/armv7/start.o
 .rel.text.pmic_rk808_charger_setting
                0x000000000004ba30        0x8 arch/arm/cpu/armv7/start.o
 .rel.text.pmic_rk808_init
                0x000000000004ba38       0x60 arch/arm/cpu/armv7/start.o
 .rel.text.pmic_rk818_init
                0x000000000004ba98       0x88 arch/arm/cpu/armv7/start.o
 .rel.text.pmic_rk818_shut_down
                0x000000000004bb20        0x8 arch/arm/cpu/armv7/start.o
 .rel.text.pmic_act8846_charger_setting
                0x0000000000000000        0x0 arch/arm/cpu/armv7/start.o
 .rel.text.act8846_regulator_set
                0x000000000004bb28       0x20 arch/arm/cpu/armv7/start.o
 .rel.text.pmic_act8846_init
                0x000000000004bb48       0x38 arch/arm/cpu/armv7/start.o
 .rel.text.pmic_act8846_shut_down
                0x000000000004bb80        0x8 arch/arm/cpu/armv7/start.o
 .rel.text.ricoh619_check_charge
                0x0000000000000000        0x0 arch/arm/cpu/armv7/start.o
 .rel.text.ricoh619_poll_pwr_key_sta
                0x0000000000000000        0x0 arch/arm/cpu/armv7/start.o
 .rel.text.ricoh619_parse_dt
                0x000000000004bb88       0x30 arch/arm/cpu/armv7/start.o
 .rel.text.pmic_ricoh619_init
                0x000000000004bbb8        0x8 arch/arm/cpu/armv7/start.o
 .rel.text.pmic_ricoh619_shut_down
                0x000000000004bbc0        0x8 arch/arm/cpu/armv7/start.o
 .rel.data.rk808_reg_matches
                0x000000000004bbc8       0x70 arch/arm/cpu/armv7/start.o
 .rel.data.rk818_reg_matches
                0x000000000004bc38       0x70 arch/arm/cpu/armv7/start.o
 .rel.data.act8846_reg_matches
                0x000000000004bca8       0x60 arch/arm/cpu/armv7/start.o
 .rel.data.act8846_regulators
                0x000000000004bd08       0x60 arch/arm/cpu/armv7/start.o
 .rel.data.ricoh619_regulator_matches
                0x000000000004bd68       0x88 arch/arm/cpu/armv7/start.o
 .rel.text.get_current
                0x000000000004bdf0       0x10 arch/arm/cpu/armv7/start.o
 .rel.text.serial_register
                0x0000000000000000        0x0 arch/arm/cpu/armv7/start.o
 .rel.text.serial_stdio_init
                0x000000000004be00       0x38 arch/arm/cpu/armv7/start.o
 .rel.text.serial_assign
                0x000000000004be38       0x10 arch/arm/cpu/armv7/start.o
 .rel.text.serial_reinit_all
                0x0000000000000000        0x0 arch/arm/cpu/armv7/start.o
 .rel.text.on_baudrate
                0x000000000004be48       0x20 arch/arm/cpu/armv7/start.o
 .rel.text.rk_serial_initialize
                0x0000000000000000        0x0 arch/arm/cpu/armv7/start.o
 .rel.text.default_serial_console
                0x000000000004be68        0x8 arch/arm/cpu/armv7/start.o
 .rel.u_boot_list_2_env_clbk_2_baudrate
                0x000000000004be70       0x10 arch/arm/cpu/armv7/start.o
 .rel.data.rk_serial_drv
                0x000000000004be80       0x30 arch/arm/cpu/armv7/start.o
 .rel.text.spi_set_wordlen
                0x0000000000000000        0x0 arch/arm/cpu/armv7/start.o
 .rel.text.usbd_get_string
                0x000000000004beb0       0x10 arch/arm/cpu/armv7/start.o
 .rel.text.usbd_rcv_complete
                0x000000000004bec0       0x20 arch/arm/cpu/armv7/start.o
 .rel.text.usbd_alloc_urb
                0x000000000004bee0       0x10 arch/arm/cpu/armv7/start.o
 .rel.text.usbd_device_event_irq
                0x000000000004bef0       0x88 arch/arm/cpu/armv7/start.o
 .rel.text.ep0_recv_setup
                0x000000000004bf78       0xe8 arch/arm/cpu/armv7/start.o
 .rel.text.ReadEndpoint0
                0x000000000004c060        0x8 arch/arm/cpu/armv7/start.o
 .rel.text.ReadBulkEndpoint
                0x000000000004c068        0x8 arch/arm/cpu/armv7/start.o
 .rel.text.udc_state_transition
                0x000000000004c070       0x48 arch/arm/cpu/armv7/start.o
 .rel.text.ControlInPacket
                0x000000000004c0b8       0x20 arch/arm/cpu/armv7/start.o
 .rel.text.WriteBulkEndpoint
                0x000000000004c0d8        0x8 arch/arm/cpu/armv7/start.o
 .rel.text.dwc_otg_epn_in_ack
                0x000000000004c0e0       0x10 arch/arm/cpu/armv7/start.o
 .rel.text.UsbConnectStatus
                0x000000000004c0f0        0x8 arch/arm/cpu/armv7/start.o
 .rel.text.UdcInit
                0x000000000004c0f8       0x10 arch/arm/cpu/armv7/start.o
 .rel.text.HaltBulkEndpoint
                0x000000000004c108       0x10 arch/arm/cpu/armv7/start.o
 .rel.text.clear_feature
                0x000000000004c118       0x30 arch/arm/cpu/armv7/start.o
 .rel.text.udc_irq
                0x000000000004c148       0x80 arch/arm/cpu/armv7/start.o
 .rel.text.suspend_usb
                0x000000000004c1c8        0x8 arch/arm/cpu/armv7/start.o
 .rel.text.resume_usb
                0x000000000004c1d0        0x8 arch/arm/cpu/armv7/start.o
 .rel.text.udc_init
                0x000000000004c1d8       0x18 arch/arm/cpu/armv7/start.o
 .rel.text.udc_connect
                0x000000000004c1f0        0x8 arch/arm/cpu/armv7/start.o
 .rel.text.udc_disconnect
                0x000000000004c1f8        0x8 arch/arm/cpu/armv7/start.o
 .rel.text.udc_enable
                0x000000000004c200       0x10 arch/arm/cpu/armv7/start.o
 .rel.data.usbd_device_states
                0x0000000000000000        0x0 arch/arm/cpu/armv7/start.o
 .rel.data.usbd_device_descriptors
                0x0000000000000000        0x0 arch/arm/cpu/armv7/start.o
 .rel.data.usbd_device_status
                0x0000000000000000        0x0 arch/arm/cpu/armv7/start.o
 .rel.data.usbd_device_requests
                0x0000000000000000        0x0 arch/arm/cpu/armv7/start.o
 .rel.data.usbd_device_events
                0x0000000000000000        0x0 arch/arm/cpu/armv7/start.o
 .rel.text.fs_probe_unsupported
                0x0000000000000000        0x0 arch/arm/cpu/armv7/start.o
 .rel.text.fs_close
                0x0000000000000000        0x0 arch/arm/cpu/armv7/start.o
 .rel.text.fs_set_blk_dev
                0x0000000000000000        0x0 arch/arm/cpu/armv7/start.o
 .rel.text.fs_ls
                0x0000000000000000        0x0 arch/arm/cpu/armv7/start.o
 .rel.text.fs_read
                0x0000000000000000        0x0 arch/arm/cpu/armv7/start.o
 .rel.text.fs_write
                0x0000000000000000        0x0 arch/arm/cpu/armv7/start.o
 .rel.text.do_size
                0x0000000000000000        0x0 arch/arm/cpu/armv7/start.o
 .rel.text.do_load
                0x0000000000000000        0x0 arch/arm/cpu/armv7/start.o
 .rel.text.do_ls
                0x0000000000000000        0x0 arch/arm/cpu/armv7/start.o
 .rel.text.file_exists
                0x0000000000000000        0x0 arch/arm/cpu/armv7/start.o
 .rel.text.do_save
                0x0000000000000000        0x0 arch/arm/cpu/armv7/start.o
 .rel.text.crc7
                0x0000000000000000        0x0 arch/arm/cpu/armv7/start.o
 .rel.text.cyg_crc16
                0x0000000000000000        0x0 arch/arm/cpu/armv7/start.o
 .rel.text.fdtdec_get_compatible
                0x0000000000000000        0x0 arch/arm/cpu/armv7/start.o
 .rel.text.fdtdec_get_is_enabled
                0x0000000000000000        0x0 arch/arm/cpu/armv7/start.o
 .rel.text.fdtdec_lookup
                0x0000000000000000        0x0 arch/arm/cpu/armv7/start.o
 .rel.text.fdtdec_next_compatible
                0x000000000004c210        0x8 arch/arm/cpu/armv7/start.o
 .rel.text.fdtdec_next_compatible_subnode
                0x0000000000000000        0x0 arch/arm/cpu/armv7/start.o
 .rel.text.fdtdec_next_alias
                0x0000000000000000        0x0 arch/arm/cpu/armv7/start.o
 .rel.text.fdtdec_add_aliases_for_id
                0x0000000000000000        0x0 arch/arm/cpu/armv7/start.o
 .rel.text.fdtdec_get_alias_seq
                0x0000000000000000        0x0 arch/arm/cpu/armv7/start.o
 .rel.text.fdtdec_get_alias_node
                0x0000000000000000        0x0 arch/arm/cpu/armv7/start.o
 .rel.text.fdtdec_get_chosen_node
                0x0000000000000000        0x0 arch/arm/cpu/armv7/start.o
 .rel.text.fdtdec_prepare_fdt
                0x0000000000000000        0x0 arch/arm/cpu/armv7/start.o
 .rel.text.fdtdec_decode_gpios
                0x000000000004c218       0x28 arch/arm/cpu/armv7/start.o
 .rel.text.fdtdec_get_config_int
                0x0000000000000000        0x0 arch/arm/cpu/armv7/start.o
 .rel.text.fdtdec_get_config_bool
                0x0000000000000000        0x0 arch/arm/cpu/armv7/start.o
 .rel.text.fdtdec_get_config_string
                0x0000000000000000        0x0 arch/arm/cpu/armv7/start.o
 .rel.text.fdtdec_read_fmap_entry
                0x0000000000000000        0x0 arch/arm/cpu/armv7/start.o
 .rel.text.fdtdec_pci_get_bdf
                0x0000000000000000        0x0 arch/arm/cpu/armv7/start.o
 .rel.text.fdtdec_decode_memory_region
                0x0000000000000000        0x0 arch/arm/cpu/armv7/start.o
 .rel.text.initcall_run_list
                0x000000000004c240        0x8 arch/arm/cpu/armv7/start.o
 .rel.text.lmb_alloc_base
                0x000000000004c248        0x8 arch/arm/cpu/armv7/start.o
 .rel.text.strmhz
                0x0000000000000000        0x0 arch/arm/cpu/armv7/start.o
 .rel.text.list_sort
                0x0000000000000000        0x0 arch/arm/cpu/armv7/start.o
 .rel.text.match_string.isra.3
                0x000000000004c250        0x8 arch/arm/cpu/armv7/start.o
 .rel.text.hcreate_r
                0x000000000004c258        0x8 arch/arm/cpu/armv7/start.o
 .rel.text.hdestroy_r
                0x000000000004c260        0x8 arch/arm/cpu/armv7/start.o
 .rel.text.hmatch_r
                0x0000000000000000        0x0 arch/arm/cpu/armv7/start.o
 .rel.text.hsearch_r
                0x000000000004c268        0x8 arch/arm/cpu/armv7/start.o
 .rel.text.hdelete_r
                0x000000000004c270        0x8 arch/arm/cpu/armv7/start.o
 .rel.text.hexport_r
                0x000000000004c278       0x18 arch/arm/cpu/armv7/start.o
 .rel.text.himport_r
                0x000000000004c290       0x20 arch/arm/cpu/armv7/start.o
 .rel.text.display_options
                0x000000000004c2b0       0x10 arch/arm/cpu/armv7/start.o
 .rel.text.print_size
                0x000000000004c2c0       0x28 arch/arm/cpu/armv7/start.o
 .rel.text.print_buffer
                0x0000000000000000        0x0 arch/arm/cpu/armv7/start.o
 .rel.text.crc32_no_comp
                0x0000000000000000        0x0 arch/arm/cpu/armv7/start.o
 .rel.text.crc32
                0x000000000004c2e8        0x8 arch/arm/cpu/armv7/start.o
 .rel.text.hang
                0x000000000004c2f0        0x8 arch/arm/cpu/armv7/start.o
 .rel.text.skip_spaces
                0x000000000004c2f8        0x8 arch/arm/cpu/armv7/start.o
 .rel.text.strim
                0x000000000004c300        0x8 arch/arm/cpu/armv7/start.o
 .rel.text.strncasecmp
                0x0000000000000000        0x0 arch/arm/cpu/armv7/start.o
 .rel.text.strtok
                0x000000000004c308        0x8 arch/arm/cpu/armv7/start.o
 .rel.text.number
                0x000000000004c310        0x8 arch/arm/cpu/armv7/start.o
 .rel.text.vsnprintf_internal
                0x000000000004c318       0x10 arch/arm/cpu/armv7/start.o
 .rel.text.simple_strtoul
                0x000000000004c328        0x8 arch/arm/cpu/armv7/start.o
 .rel.text.simple_strtoull
                0x000000000004c330        0x8 arch/arm/cpu/armv7/start.o
 .rel.text.trailing_strtoln
                0x0000000000000000        0x0 arch/arm/cpu/armv7/start.o
 .rel.text.__assert_fail
                0x0000000000000000        0x0 arch/arm/cpu/armv7/start.o
 .rel.text.simple_itoa
                0x000000000004c338        0x8 arch/arm/cpu/armv7/start.o
 .rel.text.print_grouped_ull
                0x0000000000000000        0x0 arch/arm/cpu/armv7/start.o
 .rel.rodata.compat_names
                0x000000000004c340      0x1d0 arch/arm/cpu/armv7/start.o
 .rel.data.current
                0x0000000000000000        0x0 arch/arm/cpu/armv7/start.o
 .rel.text.fdt_next_tag
                0x000000000004c510       0x48 arch/arm/cpu/armv7/start.o
 .rel.text.fdt_get_phandle
                0x000000000004c558       0x10 arch/arm/cpu/armv7/start.o
 .rel.text.fdt_get_alias_namelen
                0x000000000004c568        0x8 arch/arm/cpu/armv7/start.o
 .rel.text.fdt_node_check_compatible
                0x000000000004c570        0x8 arch/arm/cpu/armv7/start.o
 .rel.text.fdt_device_is_available
                0x000000000004c578       0x18 arch/arm/cpu/armv7/start.o
 .rel.text.fdt_strerror
                0x000000000004c590       0x20 arch/arm/cpu/armv7/start.o
 .rel.text.fdt_find_regions
                0x0000000000000000        0x0 arch/arm/cpu/armv7/start.o
 .rel.text.fdt_create_empty_tree
                0x0000000000000000        0x0 arch/arm/cpu/armv7/start.o
 .rel.text.fdt_address_cells
                0x0000000000000000        0x0 arch/arm/cpu/armv7/start.o
 .rel.text.fdt_size_cells
                0x0000000000000000        0x0 arch/arm/cpu/armv7/start.o
 .rel.rodata.fdt_errtable
                0x000000000004c5b0       0x58 arch/arm/cpu/armv7/start.o
 .rel.text.raise
                0x0000000000000000        0x0 arch/arm/cpu/armv7/start.o

.rel_dyn_end    0x000000000004c608        0x0
 *(.__rel_dyn_end)
 .__rel_dyn_end
                0x000000000004c608        0x0 arch/arm/lib/built-in.o

.end            0x000000000004c608        0x0
 *(.__end)
 .__end         0x000000000004c608        0x0 arch/arm/lib/built-in.o
                0x000000000004c608                . = ALIGN (0x4)

.loader_tag     0x000000000004c608        0x4
 *(.__loader_tag)
 .__loader_tag  0x000000000004c608        0x0 arch/arm/lib/built-in.o
                0x000000000004c608                __loader_tag
 *(.loader_tag)
 .loader_tag    0x000000000004c608        0x4 arch/arm/cpu/armv7/start.o
                0x000000000004c608                gloader_tag
                0x000000000004c60c                . = ALIGN (0x4)
                0x000000000004c60c                _image_binary_end = .
                0x000000000004d000                . = ALIGN (0x1000)

.mmutable
 *(.mmutable)

.bss_start      0x0000000000047080        0x0
 *(.__bss_start)
 .__bss_start   0x0000000000047080        0x0 arch/arm/lib/built-in.o
                0x0000000000047080                __bss_start
                0x0000000000047080                __bss_base = .

.bss            0x0000000000047080    0x5ebf8
 *(.bss*)
 .bss.g_irq_handler
                0x0000000000047080      0x700 arch/arm/cpu/armv7/rk32xx/built-in.o
 .bss.grf_gpio6c_iomux
                0x0000000000047780        0x4 arch/arm/cpu/armv7/rk32xx/built-in.o
 .bss.bl        0x0000000000047784       0x2c arch/arm/cpu/armv7/rk32xx/built-in.o
                0x0000000000047784                bl
 .bss.params    0x00000000000477b0        0x4 arch/arm/lib/built-in.o
 .bss.gBootInfo
                0x00000000000477b4    0x306d0 board/rockchip/common/built-in.o
                0x00000000000477b4                gBootInfo
 .bss.g_pLoader
                0x0000000000077e84        0x4 board/rockchip/common/built-in.o
                0x0000000000077e84                g_pLoader
 .bss.g_IDBlockOffset
                0x0000000000077e88        0xa board/rockchip/common/built-in.o
                0x0000000000077e88                g_IDBlockOffset
 *fill*         0x0000000000077e92        0x2 
 .bss.g_pIDBlock
                0x0000000000077e94        0x4 board/rockchip/common/built-in.o
                0x0000000000077e94                g_pIDBlock
 .bss.bootloader_ver
                0x0000000000077e98       0x18 board/rockchip/common/built-in.o
                0x0000000000077e98                bootloader_ver
 .bss.g_pReadBuf
                0x0000000000077eb0        0x4 board/rockchip/common/built-in.o
                0x0000000000077eb0                g_pReadBuf
 .bss.update_boot_bloader_ver
                0x0000000000077eb4        0x2 board/rockchip/common/built-in.o
                0x0000000000077eb4                update_boot_bloader_ver
 .bss.internal_boot_bloader_ver
                0x0000000000077eb6        0x2 board/rockchip/common/built-in.o
                0x0000000000077eb6                internal_boot_bloader_ver
 .bss.g_32secbuf
                0x0000000000077eb8        0x4 board/rockchip/common/built-in.o
                0x0000000000077eb8                g_32secbuf
 .bss.g_cramfs_check_buf
                0x0000000000077ebc        0x4 board/rockchip/common/built-in.o
                0x0000000000077ebc                g_cramfs_check_buf
 .bss.g_pFlashInfoData
                0x0000000000077ec0        0x4 board/rockchip/common/built-in.o
                0x0000000000077ec0                g_pFlashInfoData
 .bss.m_flashInfo
                0x0000000000077ec4       0xed board/rockchip/common/built-in.o
                0x0000000000077ec4                m_flashInfo
 *fill*         0x0000000000077fb1        0x3 
 .bss.key_recovery
                0x0000000000077fb4       0x1c board/rockchip/common/built-in.o
 .bss.power_hold_gpio
                0x0000000000077fd0        0xc board/rockchip/common/built-in.o
 .bss.charge_state_gpio
                0x0000000000077fdc        0xc board/rockchip/common/built-in.o
 .bss.gPowerKey
                0x0000000000077fe8        0xc board/rockchip/common/built-in.o
 .bss.key_fastboot
                0x0000000000077ff4       0x1c board/rockchip/common/built-in.o
 .bss.key_power
                0x0000000000078010       0x1c board/rockchip/common/built-in.o
 .bss.key_rockusb
                0x000000000007802c       0x1c board/rockchip/common/built-in.o
 .bss.g_logo_on_state
                0x0000000000078048        0x4 board/rockchip/common/built-in.o
                0x0000000000078048                g_logo_on_state
 .bss._MMC_MID  0x000000000007804c        0x1 board/rockchip/common/built-in.o
 *fill*         0x000000000007804d       0x33 
 .bss.uncachebuf
                0x0000000000078080      0x200 board/rockchip/common/built-in.o
                0x0000000000078080                uncachebuf
 .bss.gSDCInfo  0x0000000000078280     0x1884 board/rockchip/common/built-in.o
                0x0000000000078280                gSDCInfo
 .bss.gSDMDriver
                0x0000000000079b04      0x174 board/rockchip/common/built-in.o
                0x0000000000079b04                gSDMDriver
 .bss.gEmmcBootPart
                0x0000000000079c78        0x4 board/rockchip/common/built-in.o
                0x0000000000079c78                gEmmcBootPart
 .bss.nEvent    0x0000000000079c7c        0x1 board/rockchip/common/built-in.o
 .bss.nMutex    0x0000000000079c7d        0x1 board/rockchip/common/built-in.o
 *fill*         0x0000000000079c7e        0x2 
 .bss.gEvent    0x0000000000079c80        0x8 board/rockchip/common/built-in.o
 .bss.gMutex    0x0000000000079c88        0x8 board/rockchip/common/built-in.o
 *fill*         0x0000000000079c90       0x30 
 .bss.sdmmc_Data
                0x0000000000079cc0     0x8000 board/rockchip/common/built-in.o
 .bss.gSdCardInfoTbl
                0x0000000000081cc0       0x48 board/rockchip/common/built-in.o
 .bss.gsdboot_mode
                0x0000000000081d08        0x4 board/rockchip/common/built-in.o
 *fill*         0x0000000000081d0c       0x34 
 .bss.gDrmKeyInfo
                0x0000000000081d40      0x200 board/rockchip/common/built-in.o
                0x0000000000081d40                gDrmKeyInfo
 .bss.SecureMode
                0x0000000000081f40        0x4 board/rockchip/common/built-in.o
                0x0000000000081f40                SecureMode
 .bss.g_secureBootCheckBuf
                0x0000000000081f44      0x200 board/rockchip/common/built-in.o
 .bss.SecureBootCheckOK
                0x0000000000082144        0x4 board/rockchip/common/built-in.o
                0x0000000000082144                SecureBootCheckOK
 .bss.SecureBootLock_backup
                0x0000000000082148        0x4 board/rockchip/common/built-in.o
                0x0000000000082148                SecureBootLock_backup
 *fill*         0x000000000008214c       0x34 
 .bss.gBootConfig
                0x0000000000082180      0x200 board/rockchip/common/built-in.o
                0x0000000000082180                gBootConfig
 .bss.SecureBootLock
                0x0000000000082380        0x4 board/rockchip/common/built-in.o
                0x0000000000082380                SecureBootLock
 .bss.SecureBootEn
                0x0000000000082384        0x4 board/rockchip/common/built-in.o
                0x0000000000082384                SecureBootEn
 .bss.g_rsa_key_buf
                0x0000000000082388      0x840 board/rockchip/common/built-in.o
 .bss.RSK_KEY   0x0000000000082bc8        0x4 board/rockchip/common/built-in.o
 *fill*         0x0000000000082bcc       0x34 
 .bss.g_FlashInfo
                0x0000000000082c00       0x40 board/rockchip/common/built-in.o
                0x0000000000082c00                g_FlashInfo
 .bss.gpMemFun  0x0000000000082c40        0x4 board/rockchip/common/built-in.o
                0x0000000000082c40                gpMemFun
 *fill*         0x0000000000082c44       0x3c 
 .bss.gIdDataBuf
                0x0000000000082c80      0x800 board/rockchip/common/built-in.o
                0x0000000000082c80                gIdDataBuf
 .bss.FWLowFormatEn
                0x0000000000083480        0x4 board/rockchip/common/built-in.o
 .bss.flag_repeat
                0x0000000000083484        0x4 common/built-in.o
 .bss.the_command.6518
                0x0000000000083488      0x101 common/built-in.o
 .bss.buf.6718  0x0000000000083589       0x28 common/built-in.o
 *fill*         0x00000000000835b1        0x3 
 .bss.ifs       0x00000000000835b4        0x4 common/built-in.o
 .bss.last_return_code
                0x00000000000835b8        0x4 common/built-in.o
 .bss.map       0x00000000000835bc      0x100 common/built-in.o
 .bss.do_repeat
                0x00000000000836bc        0x4 common/built-in.o
 .bss.top_vars  0x00000000000836c0        0x4 common/built-in.o
 .bss.console_buffer
                0x00000000000836c4      0x101 common/built-in.o
                0x00000000000836c4                console_buffer
 *fill*         0x00000000000837c5        0x3 
 .bss.stored_bootdelay
                0x00000000000837c8        0x4 common/built-in.o
 .bss.monitor_flash_len
                0x00000000000837cc        0x4 common/built-in.o
                0x00000000000837cc                monitor_flash_len
 .bss.images    0x00000000000837d0      0x130 common/built-in.o
                0x00000000000837d0                images
 .bss.callback_list
                0x0000000000083900        0x4 common/built-in.o
 .bss.flags_list
                0x0000000000083904        0x4 common/built-in.o
 *fill*         0x0000000000083908       0x38 
 .bss.__env_buf
                0x0000000000083940      0x200 common/built-in.o
 .bss.working_fdt
                0x0000000000083b40        0x4 common/built-in.o
                0x0000000000083b40                working_fdt
 .bss.data.7051
                0x0000000000083b44      0x400 common/built-in.o
 .bss.device_instance
                0x0000000000083f44       0x78 common/built-in.o
 .bss.bus_instance
                0x0000000000083fbc       0x38 common/built-in.o
 .bss.wstr_manufacturer
                0x0000000000083ff4       0x28 common/built-in.o
 .bss.wstr_serial
                0x000000000008401c       0x64 common/built-in.o
 .bss.wstr_product
                0x0000000000084080       0x20 common/built-in.o
 .bss.wstr_interface
                0x00000000000840a0       0x70 common/built-in.o
 .bss.ep_descriptor_ptrs
                0x0000000000084110       0x10 common/built-in.o
 .bss.priv      0x0000000000084120    0x20300 common/built-in.o
 .bss.log_position
                0x00000000000a4420        0x4 common/built-in.o
 .bss.interface_descriptors
                0x00000000000a4424       0x12 common/built-in.o
 *fill*         0x00000000000a4436        0x2 
 .bss.config_instance
                0x00000000000a4438       0x18 common/built-in.o
 .bss.interface_instance
                0x00000000000a4450       0x10 common/built-in.o
 .bss.serial_number
                0x00000000000a4460       0x21 common/built-in.o
 *fill*         0x00000000000a4481        0x3 
 .bss.alternate_instance
                0x00000000000a4484       0x20 common/built-in.o
 .bss.wstr_configuration
                0x00000000000a44a4       0x80 common/built-in.o
 .bss.fbt_string_table
                0x00000000000a4524       0x18 common/built-in.o
 .bss.log_buffer
                0x00000000000a453c        0x4 common/built-in.o
 .bss.endpoint_instance
                0x00000000000a4540      0x228 common/built-in.o
 .bss.command_line.8936
                0x00000000000a4768      0x400 common/built-in.o
 .bss.TimeOutBase
                0x00000000000a4b68        0x8 common/built-in.o
 .bss.rkusb_string_table
                0x00000000000a4b70       0x18 common/built-in.o
 *fill*         0x00000000000a4b88       0x38 
 .bss.usbcmd    0x00000000000a4bc0      0x140 common/built-in.o
 .bss.lcd_color_bg
                0x00000000000a4d00        0x4 common/built-in.o
 .bss.lcd_flip  0x00000000000a4d04        0x1 common/built-in.o
                0x00000000000a4d04                lcd_flip
 *fill*         0x00000000000a4d05        0x3 
 .bss.lcd_base  0x00000000000a4d08        0x4 common/built-in.o
 .bss.lcd_color_fg
                0x00000000000a4d0c        0x4 common/built-in.o
 .bss.lcd_show_logo
                0x00000000000a4d10        0x1 common/built-in.o
                0x00000000000a4d10                lcd_show_logo
 *fill*         0x00000000000a4d11        0x3 
 .bss.lcd_line_length
                0x00000000000a4d14        0x4 common/built-in.o
                0x00000000000a4d14                lcd_line_length
 .bss.lcd_console_address
                0x00000000000a4d18        0x4 common/built-in.o
 .bss.lcd_is_enabled
                0x00000000000a4d1c        0x1 common/built-in.o
                0x00000000000a4d1c                lcd_is_enabled
 .bss.lcd_flush_dcache
                0x00000000000a4d1d        0x1 common/built-in.o
 *fill*         0x00000000000a4d1e        0x2 
 .bss.ctrlc_was_pressed
                0x00000000000a4d20        0x4 common/built-in.o
 .bss.ctrlc_disabled
                0x00000000000a4d24        0x4 common/built-in.o
 .bss.max_total_mem
                0x00000000000a4d28        0x4 common/built-in.o
 .bss.mem_malloc_brk
                0x00000000000a4d2c        0x4 common/built-in.o
                0x00000000000a4d2c                mem_malloc_brk
 .bss.max_sbrked_mem
                0x00000000000a4d30        0x4 common/built-in.o
 .bss.current_mallinfo
                0x00000000000a4d34       0x28 common/built-in.o
 .bss.mem_malloc_end
                0x00000000000a4d5c        0x4 common/built-in.o
                0x00000000000a4d5c                mem_malloc_end
 .bss.top_pad   0x00000000000a4d60        0x4 common/built-in.o
 .bss.mem_malloc_start
                0x00000000000a4d64        0x4 common/built-in.o
                0x00000000000a4d64                mem_malloc_start
 .bss.load_addr
                0x00000000000a4d68        0x4 common/built-in.o
                0x00000000000a4d68                load_addr
 .bss.devs      0x00000000000a4d6c       0x3c common/built-in.o
 .bss.stdio_devices
                0x00000000000a4da8        0xc common/built-in.o
                0x00000000000a4da8                stdio_devices
 .bss.rockchip_fb
                0x00000000000a4db4       0x14 drivers/built-in.o
                0x00000000000a4db4                rockchip_fb
 .bss.rk32_lcdc
                0x00000000000a4dc8      0xca8 drivers/built-in.o
                0x00000000000a4dc8                rk32_lcdc
 .bss.rk32_edp  0x00000000000a5a70       0x48 drivers/built-in.o
 .bss.gmipi_screen
                0x00000000000a5ab8        0x4 drivers/built-in.o
 .bss.id.8735   0x00000000000a5abc        0x4 drivers/built-in.o
 .bss.dsi1      0x00000000000a5ac0        0x4 drivers/built-in.o
 .bss.dsi0      0x00000000000a5ac4        0x4 drivers/built-in.o
 .bss.val.8466  0x00000000000a5ac8        0x4 drivers/built-in.o
 .bss.dsi_ops   0x00000000000a5acc       0x14 drivers/built-in.o
 .bss.rockchip_pmic_id
                0x00000000000a5ae0        0x1 drivers/power/built-in.o
 *fill*         0x00000000000a5ae1        0x3 
 .bss.gpio_pwr_hold
                0x00000000000a5ae4        0xc drivers/power/built-in.o
                0x00000000000a5ae4                gpio_pwr_hold
 .bss.pBC_UOC_FIELDS
                0x00000000000a5af0        0x4 drivers/power/charge/built-in.o
 .bss.usb_bc_init_flag.7616
                0x00000000000a5af4        0x4 drivers/power/charge/built-in.o
 .bss.state_of_chrg
                0x00000000000a5af8        0x8 drivers/power/fuel_gauge/built-in.o
                0x00000000000a5afc                state_of_chrg
 .bss.cw        0x00000000000a5b00       0x18 drivers/power/fuel_gauge/built-in.o
                0x00000000000a5b00                cw
 .bss.ricoh_fg  0x00000000000a5b18        0x4 drivers/power/fuel_gauge/built-in.o
                0x00000000000a5b18                ricoh_fg
 .bss.rk81x_fg_loader_init
                0x00000000000a5b1c        0x1 drivers/power/fuel_gauge/built-in.o
 *fill*         0x00000000000a5b1d        0x3 
 .bss.g_battery
                0x00000000000a5b20       0xc0 drivers/power/fuel_gauge/built-in.o
                0x00000000000a5b20                g_battery
 .bss.rk818_fg  0x00000000000a5be0        0x4 drivers/power/fuel_gauge/built-in.o
                0x00000000000a5be0                rk818_fg
 .bss.old_soc.8205
                0x00000000000a5be4        0x1 drivers/power/fuel_gauge/built-in.o
 *fill*         0x00000000000a5be5        0x3 
 .bss.old_capacity.8212
                0x00000000000a5be8        0x4 drivers/power/fuel_gauge/built-in.o
 .bss.rk808     0x00000000000a5bec       0x14 drivers/power/pmic/built-in.o
                0x00000000000a5bec                rk808
 .bss.rk818     0x00000000000a5c00        0x8 drivers/power/pmic/built-in.o
                0x00000000000a5c00                rk818
 .bss.support_dc_chg
                0x00000000000a5c08        0x4 drivers/power/pmic/built-in.o
                0x00000000000a5c08                support_dc_chg
 .bss.act8846   0x00000000000a5c0c       0x14 drivers/power/pmic/built-in.o
                0x00000000000a5c0c                act8846
 .bss.ricoh619  0x00000000000a5c20        0x8 drivers/power/pmic/built-in.o
                0x00000000000a5c20                ricoh619
 .bss.serial_devices
                0x00000000000a5c28        0x4 drivers/serial/built-in.o
 .bss.serial_current
                0x00000000000a5c2c        0x4 drivers/serial/built-in.o
 .bss.usb_strings
                0x00000000000a5c30        0x4 drivers/usb/gadget/built-in.o
                0x00000000000a5c30                usb_strings
 .bss.ControlStage
                0x00000000000a5c34        0x1 drivers/usb/gadget/built-in.o
 .bss.UsbBusReset
                0x00000000000a5c35        0x1 drivers/usb/gadget/built-in.o
 *fill*         0x00000000000a5c36        0x2 
 .bss.udc_device
                0x00000000000a5c38        0x4 drivers/usb/gadget/built-in.o
 .bss.ControlData
                0x00000000000a5c3c       0x10 drivers/usb/gadget/built-in.o
 .bss.UsbConnected
                0x00000000000a5c4c        0x1 drivers/usb/gadget/built-in.o
 .bss.Ep0PktSize
                0x00000000000a5c4d        0x1 drivers/usb/gadget/built-in.o
 .bss.BulkEpSize
                0x00000000000a5c4e        0x2 drivers/usb/gadget/built-in.o
 .bss.ep0_urb   0x00000000000a5c50        0x4 drivers/usb/gadget/built-in.o
 .bss.Ep0Buf    0x00000000000a5c54        0x4 drivers/usb/gadget/built-in.o
 .bss.errno     0x00000000000a5c58        0x4 lib/built-in.o
                0x00000000000a5c58                errno
 .bss.___strtok
                0x00000000000a5c5c        0x4 lib/built-in.o
                0x00000000000a5c5c                ___strtok
 .bss.local.6486
                0x00000000000a5c60       0x16 lib/built-in.o
                0x00000000000a5c78                . = ALIGN (0x4)
 *fill*         0x00000000000a5c76        0x2 
                0x00000000000a5c78                __bss_limit = .

.bss_end        0x00000000000a5c78        0x0
 *(.__bss_end)
 .__bss_end     0x00000000000a5c78        0x0 arch/arm/lib/built-in.o
                0x00000000000a5c78                __bss_end

.dynsym         0x000000000004c60c       0x60
 *(.dynsym)
 .dynsym        0x000000000004c60c       0x60 arch/arm/cpu/armv7/start.o

.dynbss         0x000000000004c66c        0x0
 *(.dynbss)
 .dynbss        0x0000000000000000        0x0 arch/arm/cpu/armv7/start.o

.dynstr         0x000000000004c66c       0x2a
 *(.dynstr*)
 .dynstr        0x000000000004c66c       0x2a arch/arm/cpu/armv7/start.o

.dynamic        0x000000000004c698       0x80
 *(.dynamic*)
 .dynamic       0x000000000004c698       0x80 arch/arm/cpu/armv7/start.o
                0x000000000004c698                _DYNAMIC

.plt            0x000000000004c718        0x0
 *(.plt*)
 .plt           0x0000000000000000        0x0 arch/arm/cpu/armv7/start.o

.interp         0x000000000004c718       0x11
 *(.interp*)
 .interp        0x000000000004c718       0x11 arch/arm/cpu/armv7/start.o

.gnu.hash
 *(.gnu.hash)

.gnu            0x000000000004c72c        0x0
 *(.gnu*)
 .gnu.version_d
                0x0000000000000000        0x0 arch/arm/cpu/armv7/start.o
 .gnu.version   0x0000000000000000        0x0 arch/arm/cpu/armv7/start.o
 .gnu.version_r
                0x0000000000000000        0x0 arch/arm/cpu/armv7/start.o

.ARM.exidx      0x000000000004c72c       0x10
 *(.ARM.exidx*)
 .ARM.exidx     0x000000000004c72c        0x8 /home/rk3288-sdk/prebuilts/gcc/linux-x86/arm/arm-eabi-4.7/bin/../lib/gcc/arm-eabi/4.7/libgcc.a(_divdi3.o)
 .ARM.exidx     0x000000000004c734        0x8 /home/rk3288-sdk/prebuilts/gcc/linux-x86/arm/arm-eabi-4.7/bin/../lib/gcc/arm-eabi/4.7/libgcc.a(_udivdi3.o)

.gnu.linkonce.armexidx
 *(.gnu.linkonce.armexidx.*)
LOAD arch/arm/cpu/armv7/start.o
START GROUP
LOAD arch/arm/cpu/built-in.o
LOAD arch/arm/cpu/armv7/built-in.o
LOAD arch/arm/cpu/armv7/rk32xx/built-in.o
LOAD arch/arm/lib/built-in.o
LOAD board/rockchip/common/built-in.o
LOAD board/rockchip/rk32xx/built-in.o
LOAD common/built-in.o
LOAD disk/built-in.o
LOAD drivers/built-in.o
LOAD drivers/dma/built-in.o
LOAD drivers/gpio/built-in.o
LOAD drivers/i2c/built-in.o
LOAD drivers/mmc/built-in.o
LOAD drivers/mtd/built-in.o
LOAD drivers/mtd/onenand/built-in.o
LOAD drivers/mtd/spi/built-in.o
LOAD drivers/net/built-in.o
LOAD drivers/net/phy/built-in.o
LOAD drivers/pci/built-in.o
LOAD drivers/power/built-in.o
LOAD drivers/power/battery/built-in.o
LOAD drivers/power/charge/built-in.o
LOAD drivers/power/fuel_gauge/built-in.o
LOAD drivers/power/mfd/built-in.o
LOAD drivers/power/pmic/built-in.o
LOAD drivers/serial/built-in.o
LOAD drivers/spi/built-in.o
LOAD drivers/usb/eth/built-in.o
LOAD drivers/usb/gadget/built-in.o
LOAD drivers/usb/host/built-in.o
LOAD drivers/usb/musb-new/built-in.o
LOAD drivers/usb/musb/built-in.o
LOAD drivers/usb/phy/built-in.o
LOAD drivers/usb/ulpi/built-in.o
LOAD fs/built-in.o
LOAD lib/built-in.o
LOAD lib/libfdt/built-in.o
LOAD net/built-in.o
LOAD test/built-in.o
LOAD test/dm/built-in.o
END GROUP
LOAD arch/arm/lib/eabi_compat.o
LOAD /home/rk3288-sdk/prebuilts/gcc/linux-x86/arm/arm-eabi-4.7/bin/../lib/gcc/arm-eabi/4.7/libgcc.a
OUTPUT(u-boot elf32-littlearm)

.ARM.attributes
                0x0000000000000000       0x2b
 .ARM.attributes
                0x0000000000000000       0x1f arch/arm/cpu/armv7/start.o
 .ARM.attributes
                0x000000000000001f       0x2d arch/arm/cpu/armv7/built-in.o
 .ARM.attributes
                0x000000000000004c       0x2d arch/arm/cpu/armv7/rk32xx/built-in.o
 .ARM.attributes
                0x0000000000000079       0x2b arch/arm/lib/built-in.o
 .ARM.attributes
                0x00000000000000a4       0x2d board/rockchip/common/built-in.o
 .ARM.attributes
                0x00000000000000d1       0x2d board/rockchip/rk32xx/built-in.o
 .ARM.attributes
                0x00000000000000fe       0x2d common/built-in.o
 .ARM.attributes
                0x000000000000012b       0x2d drivers/built-in.o
 .ARM.attributes
                0x0000000000000158       0x2d drivers/gpio/built-in.o
 .ARM.attributes
                0x0000000000000185       0x2d drivers/i2c/built-in.o
 .ARM.attributes
                0x00000000000001b2       0x2d drivers/power/built-in.o
 .ARM.attributes
                0x00000000000001df       0x2d drivers/power/charge/built-in.o
 .ARM.attributes
                0x000000000000020c       0x2d drivers/power/fuel_gauge/built-in.o
 .ARM.attributes
                0x0000000000000239       0x2d drivers/power/pmic/built-in.o
 .ARM.attributes
                0x0000000000000266       0x2d drivers/serial/built-in.o
 .ARM.attributes
                0x0000000000000293       0x2d drivers/usb/gadget/built-in.o
 .ARM.attributes
                0x00000000000002c0       0x2d lib/built-in.o
 .ARM.attributes
                0x00000000000002ed       0x2d lib/libfdt/built-in.o
 .ARM.attributes
                0x000000000000031a       0x1f /home/rk3288-sdk/prebuilts/gcc/linux-x86/arm/arm-eabi-4.7/bin/../lib/gcc/arm-eabi/4.7/libgcc.a(_udivsi3.o)
 .ARM.attributes
                0x0000000000000339       0x1f /home/rk3288-sdk/prebuilts/gcc/linux-x86/arm/arm-eabi-4.7/bin/../lib/gcc/arm-eabi/4.7/libgcc.a(_divsi3.o)
 .ARM.attributes
                0x0000000000000358       0x1f /home/rk3288-sdk/prebuilts/gcc/linux-x86/arm/arm-eabi-4.7/bin/../lib/gcc/arm-eabi/4.7/libgcc.a(_dvmd_tls.o)
 .ARM.attributes
                0x0000000000000377       0x1f /home/rk3288-sdk/prebuilts/gcc/linux-x86/arm/arm-eabi-4.7/bin/../lib/gcc/arm-eabi/4.7/libgcc.a(_lshrdi3.o)
 .ARM.attributes
                0x0000000000000396       0x1f /home/rk3288-sdk/prebuilts/gcc/linux-x86/arm/arm-eabi-4.7/bin/../lib/gcc/arm-eabi/4.7/libgcc.a(_ashldi3.o)
 .ARM.attributes
                0x00000000000003b5       0x1f /home/rk3288-sdk/prebuilts/gcc/linux-x86/arm/arm-eabi-4.7/bin/../lib/gcc/arm-eabi/4.7/libgcc.a(_aeabi_uldivmod.o)
 .ARM.attributes
                0x00000000000003d4       0x2b /home/rk3288-sdk/prebuilts/gcc/linux-x86/arm/arm-eabi-4.7/bin/../lib/gcc/arm-eabi/4.7/libgcc.a(bpabi.o)
 .ARM.attributes
                0x00000000000003ff       0x2b /home/rk3288-sdk/prebuilts/gcc/linux-x86/arm/arm-eabi-4.7/bin/../lib/gcc/arm-eabi/4.7/libgcc.a(_divdi3.o)
 .ARM.attributes
                0x000000000000042a       0x2b /home/rk3288-sdk/prebuilts/gcc/linux-x86/arm/arm-eabi-4.7/bin/../lib/gcc/arm-eabi/4.7/libgcc.a(_udivdi3.o)

.comment        0x0000000000000000        0xf
 .comment       0x0000000000000000        0xf arch/arm/cpu/armv7/built-in.o
                                         0x30 (size before relaxing)
 .comment       0x0000000000000000       0x90 arch/arm/cpu/armv7/rk32xx/built-in.o
 .comment       0x0000000000000000       0x80 arch/arm/lib/built-in.o
 .comment       0x0000000000000000      0x180 board/rockchip/common/built-in.o
 .comment       0x0000000000000000       0x10 board/rockchip/rk32xx/built-in.o
 .comment       0x0000000000000000      0x290 common/built-in.o
 .comment       0x0000000000000000       0xa0 drivers/built-in.o
 .comment       0x0000000000000000       0x10 drivers/gpio/built-in.o
 .comment       0x0000000000000000       0x10 drivers/i2c/built-in.o
 .comment       0x0000000000000000       0x40 drivers/power/built-in.o
 .comment       0x0000000000000000       0x10 drivers/power/charge/built-in.o
 .comment       0x0000000000000000       0x30 drivers/power/fuel_gauge/built-in.o
 .comment       0x0000000000000000       0x40 drivers/power/pmic/built-in.o
 .comment       0x0000000000000000       0x20 drivers/serial/built-in.o
 .comment       0x0000000000000000       0x30 drivers/usb/gadget/built-in.o
 .comment       0x0000000000000000      0x180 lib/built-in.o
 .comment       0x0000000000000000       0x80 lib/libfdt/built-in.o
 .comment       0x0000000000000000       0x10 /home/rk3288-sdk/prebuilts/gcc/linux-x86/arm/arm-eabi-4.7/bin/../lib/gcc/arm-eabi/4.7/libgcc.a(bpabi.o)
 .comment       0x0000000000000000       0x10 /home/rk3288-sdk/prebuilts/gcc/linux-x86/arm/arm-eabi-4.7/bin/../lib/gcc/arm-eabi/4.7/libgcc.a(_divdi3.o)
 .comment       0x0000000000000000       0x10 /home/rk3288-sdk/prebuilts/gcc/linux-x86/arm/arm-eabi-4.7/bin/../lib/gcc/arm-eabi/4.7/libgcc.a(_udivdi3.o)

.debug_line     0x0000000000000000    0x1bc83
 .debug_line    0x0000000000000000       0x8f arch/arm/cpu/armv7/start.o
 .debug_line    0x000000000000008f      0x48f arch/arm/cpu/armv7/built-in.o
 .debug_line    0x000000000000051e     0x197b arch/arm/cpu/armv7/rk32xx/built-in.o
 .debug_line    0x0000000000001e99      0xd1f arch/arm/lib/built-in.o
 .debug_line    0x0000000000002bb8     0x6367 board/rockchip/common/built-in.o
 .debug_line    0x0000000000008f1f      0x34e board/rockchip/rk32xx/built-in.o
 .debug_line    0x000000000000926d     0x7eab common/built-in.o
 .debug_line    0x0000000000011118     0x25ac drivers/built-in.o
 .debug_line    0x00000000000136c4      0x310 drivers/gpio/built-in.o
 .debug_line    0x00000000000139d4      0x3bb drivers/i2c/built-in.o
 .debug_line    0x0000000000013d8f      0x87e drivers/power/built-in.o
 .debug_line    0x000000000001460d      0x2bb drivers/power/charge/built-in.o
 .debug_line    0x00000000000148c8      0xe58 drivers/power/fuel_gauge/built-in.o
 .debug_line    0x0000000000015720      0xdb8 drivers/power/pmic/built-in.o
 .debug_line    0x00000000000164d8      0x546 drivers/serial/built-in.o
 .debug_line    0x0000000000016a1e      0xb28 drivers/usb/gadget/built-in.o
 .debug_line    0x0000000000017546     0x2d3e lib/built-in.o
 .debug_line    0x000000000001a284     0x1413 lib/libfdt/built-in.o
 .debug_line    0x000000000001b697       0x9b /home/rk3288-sdk/prebuilts/gcc/linux-x86/arm/arm-eabi-4.7/bin/../lib/gcc/arm-eabi/4.7/libgcc.a(_udivsi3.o)
 .debug_line    0x000000000001b732       0xa7 /home/rk3288-sdk/prebuilts/gcc/linux-x86/arm/arm-eabi-4.7/bin/../lib/gcc/arm-eabi/4.7/libgcc.a(_divsi3.o)
 .debug_line    0x000000000001b7d9       0x77 /home/rk3288-sdk/prebuilts/gcc/linux-x86/arm/arm-eabi-4.7/bin/../lib/gcc/arm-eabi/4.7/libgcc.a(_dvmd_tls.o)
 .debug_line    0x000000000001b850       0x7d /home/rk3288-sdk/prebuilts/gcc/linux-x86/arm/arm-eabi-4.7/bin/../lib/gcc/arm-eabi/4.7/libgcc.a(_lshrdi3.o)
 .debug_line    0x000000000001b8cd       0x7d /home/rk3288-sdk/prebuilts/gcc/linux-x86/arm/arm-eabi-4.7/bin/../lib/gcc/arm-eabi/4.7/libgcc.a(_ashldi3.o)
 .debug_line    0x000000000001b94a       0x7c /home/rk3288-sdk/prebuilts/gcc/linux-x86/arm/arm-eabi-4.7/bin/../lib/gcc/arm-eabi/4.7/libgcc.a(_aeabi_uldivmod.o)
 .debug_line    0x000000000001b9c6       0x7b /home/rk3288-sdk/prebuilts/gcc/linux-x86/arm/arm-eabi-4.7/bin/../lib/gcc/arm-eabi/4.7/libgcc.a(bpabi.o)
 .debug_line    0x000000000001ba41      0x129 /home/rk3288-sdk/prebuilts/gcc/linux-x86/arm/arm-eabi-4.7/bin/../lib/gcc/arm-eabi/4.7/libgcc.a(_divdi3.o)
 .debug_line    0x000000000001bb6a      0x119 /home/rk3288-sdk/prebuilts/gcc/linux-x86/arm/arm-eabi-4.7/bin/../lib/gcc/arm-eabi/4.7/libgcc.a(_udivdi3.o)

.debug_info     0x0000000000000000    0xa4a51
 .debug_info    0x0000000000000000       0x60 arch/arm/cpu/armv7/start.o
 .debug_info    0x0000000000000060     0x160f arch/arm/cpu/armv7/built-in.o
 .debug_info    0x000000000000166f     0x9152 arch/arm/cpu/armv7/rk32xx/built-in.o
 .debug_info    0x000000000000a7c1     0x4cea arch/arm/lib/built-in.o
 .debug_info    0x000000000000f4ab    0x20192 board/rockchip/common/built-in.o
 .debug_info    0x000000000002f63d      0xe1e board/rockchip/rk32xx/built-in.o
 .debug_info    0x000000000003045b    0x322c5 common/built-in.o
 .debug_info    0x0000000000062720    0x11b92 drivers/built-in.o
 .debug_info    0x00000000000742b2      0xce6 drivers/gpio/built-in.o
 .debug_info    0x0000000000074f98     0x1511 drivers/i2c/built-in.o
 .debug_info    0x00000000000764a9     0x3824 drivers/power/built-in.o
 .debug_info    0x0000000000079ccd     0x1fb1 drivers/power/charge/built-in.o
 .debug_info    0x000000000007bc7e     0x73a4 drivers/power/fuel_gauge/built-in.o
 .debug_info    0x0000000000083022     0x66df drivers/power/pmic/built-in.o
 .debug_info    0x0000000000089701     0x1fb5 drivers/serial/built-in.o
 .debug_info    0x000000000008b6b6     0x53ed drivers/usb/gadget/built-in.o
 .debug_info    0x0000000000090aa3     0xc77b lib/built-in.o
 .debug_info    0x000000000009d21e     0x6718 lib/libfdt/built-in.o
 .debug_info    0x00000000000a3936       0xa2 /home/rk3288-sdk/prebuilts/gcc/linux-x86/arm/arm-eabi-4.7/bin/../lib/gcc/arm-eabi/4.7/libgcc.a(_udivsi3.o)
 .debug_info    0x00000000000a39d8       0xa2 /home/rk3288-sdk/prebuilts/gcc/linux-x86/arm/arm-eabi-4.7/bin/../lib/gcc/arm-eabi/4.7/libgcc.a(_divsi3.o)
 .debug_info    0x00000000000a3a7a       0xa2 /home/rk3288-sdk/prebuilts/gcc/linux-x86/arm/arm-eabi-4.7/bin/../lib/gcc/arm-eabi/4.7/libgcc.a(_dvmd_tls.o)
 .debug_info    0x00000000000a3b1c       0xa2 /home/rk3288-sdk/prebuilts/gcc/linux-x86/arm/arm-eabi-4.7/bin/../lib/gcc/arm-eabi/4.7/libgcc.a(_lshrdi3.o)
 .debug_info    0x00000000000a3bbe       0xa2 /home/rk3288-sdk/prebuilts/gcc/linux-x86/arm/arm-eabi-4.7/bin/../lib/gcc/arm-eabi/4.7/libgcc.a(_ashldi3.o)
 .debug_info    0x00000000000a3c60       0x9e /home/rk3288-sdk/prebuilts/gcc/linux-x86/arm/arm-eabi-4.7/bin/../lib/gcc/arm-eabi/4.7/libgcc.a(_aeabi_uldivmod.o)
 .debug_info    0x00000000000a3cfe      0x170 /home/rk3288-sdk/prebuilts/gcc/linux-x86/arm/arm-eabi-4.7/bin/../lib/gcc/arm-eabi/4.7/libgcc.a(bpabi.o)
 .debug_info    0x00000000000a3e6e      0x612 /home/rk3288-sdk/prebuilts/gcc/linux-x86/arm/arm-eabi-4.7/bin/../lib/gcc/arm-eabi/4.7/libgcc.a(_divdi3.o)
 .debug_info    0x00000000000a4480      0x5d1 /home/rk3288-sdk/prebuilts/gcc/linux-x86/arm/arm-eabi-4.7/bin/../lib/gcc/arm-eabi/4.7/libgcc.a(_udivdi3.o)

.debug_abbrev   0x0000000000000000    0x1af1d
 .debug_abbrev  0x0000000000000000       0x14 arch/arm/cpu/armv7/start.o
 .debug_abbrev  0x0000000000000014      0x617 arch/arm/cpu/armv7/built-in.o
 .debug_abbrev  0x000000000000062b     0x1960 arch/arm/cpu/armv7/rk32xx/built-in.o
 .debug_abbrev  0x0000000000001f8b      0xfea arch/arm/lib/built-in.o
 .debug_abbrev  0x0000000000002f75     0x4f36 board/rockchip/common/built-in.o
 .debug_abbrev  0x0000000000007eab      0x319 board/rockchip/rk32xx/built-in.o
 .debug_abbrev  0x00000000000081c4     0x8463 common/built-in.o
 .debug_abbrev  0x0000000000010627     0x2072 drivers/built-in.o
 .debug_abbrev  0x0000000000012699      0x2c7 drivers/gpio/built-in.o
 .debug_abbrev  0x0000000000012960      0x43c drivers/i2c/built-in.o
 .debug_abbrev  0x0000000000012d9c      0xb3c drivers/power/built-in.o
 .debug_abbrev  0x00000000000138d8      0x3ff drivers/power/charge/built-in.o
 .debug_abbrev  0x0000000000013cd7      0xca5 drivers/power/fuel_gauge/built-in.o
 .debug_abbrev  0x000000000001497c      0xf41 drivers/power/pmic/built-in.o
 .debug_abbrev  0x00000000000158bd      0x758 drivers/serial/built-in.o
 .debug_abbrev  0x0000000000016015      0xbcc drivers/usb/gadget/built-in.o
 .debug_abbrev  0x0000000000016be1     0x2e72 lib/built-in.o
 .debug_abbrev  0x0000000000019a53     0x109b lib/libfdt/built-in.o
 .debug_abbrev  0x000000000001aaee       0x14 /home/rk3288-sdk/prebuilts/gcc/linux-x86/arm/arm-eabi-4.7/bin/../lib/gcc/arm-eabi/4.7/libgcc.a(_udivsi3.o)
 .debug_abbrev  0x000000000001ab02       0x14 /home/rk3288-sdk/prebuilts/gcc/linux-x86/arm/arm-eabi-4.7/bin/../lib/gcc/arm-eabi/4.7/libgcc.a(_divsi3.o)
 .debug_abbrev  0x000000000001ab16       0x14 /home/rk3288-sdk/prebuilts/gcc/linux-x86/arm/arm-eabi-4.7/bin/../lib/gcc/arm-eabi/4.7/libgcc.a(_dvmd_tls.o)
 .debug_abbrev  0x000000000001ab2a       0x14 /home/rk3288-sdk/prebuilts/gcc/linux-x86/arm/arm-eabi-4.7/bin/../lib/gcc/arm-eabi/4.7/libgcc.a(_lshrdi3.o)
 .debug_abbrev  0x000000000001ab3e       0x14 /home/rk3288-sdk/prebuilts/gcc/linux-x86/arm/arm-eabi-4.7/bin/../lib/gcc/arm-eabi/4.7/libgcc.a(_ashldi3.o)
 .debug_abbrev  0x000000000001ab52       0x14 /home/rk3288-sdk/prebuilts/gcc/linux-x86/arm/arm-eabi-4.7/bin/../lib/gcc/arm-eabi/4.7/libgcc.a(_aeabi_uldivmod.o)
 .debug_abbrev  0x000000000001ab66       0xb5 /home/rk3288-sdk/prebuilts/gcc/linux-x86/arm/arm-eabi-4.7/bin/../lib/gcc/arm-eabi/4.7/libgcc.a(bpabi.o)
 .debug_abbrev  0x000000000001ac1b      0x190 /home/rk3288-sdk/prebuilts/gcc/linux-x86/arm/arm-eabi-4.7/bin/../lib/gcc/arm-eabi/4.7/libgcc.a(_divdi3.o)
 .debug_abbrev  0x000000000001adab      0x172 /home/rk3288-sdk/prebuilts/gcc/linux-x86/arm/arm-eabi-4.7/bin/../lib/gcc/arm-eabi/4.7/libgcc.a(_udivdi3.o)

.debug_aranges  0x0000000000000000     0x3888
 .debug_aranges
                0x0000000000000000       0x20 arch/arm/cpu/armv7/start.o
 .debug_aranges
                0x0000000000000020       0xe8 arch/arm/cpu/armv7/built-in.o
 .debug_aranges
                0x0000000000000108      0x2f0 arch/arm/cpu/armv7/rk32xx/built-in.o
 .debug_aranges
                0x00000000000003f8      0x240 arch/arm/lib/built-in.o
 .debug_aranges
                0x0000000000000638      0xa70 board/rockchip/common/built-in.o
 .debug_aranges
                0x00000000000010a8       0x48 board/rockchip/rk32xx/built-in.o
 .debug_aranges
                0x00000000000010f0      0xfa8 common/built-in.o
 .debug_aranges
                0x0000000000002098      0x4e8 drivers/built-in.o
 .debug_aranges
                0x0000000000002580       0x80 drivers/gpio/built-in.o
 .debug_aranges
                0x0000000000002600       0x80 drivers/i2c/built-in.o
 .debug_aranges
                0x0000000000002680      0x128 drivers/power/built-in.o
 .debug_aranges
                0x00000000000027a8       0x30 drivers/power/charge/built-in.o
 .debug_aranges
                0x00000000000027d8      0x158 drivers/power/fuel_gauge/built-in.o
 .debug_aranges
                0x0000000000002930      0x118 drivers/power/pmic/built-in.o
 .debug_aranges
                0x0000000000002a48      0x110 drivers/serial/built-in.o
 .debug_aranges
                0x0000000000002b58      0x1d8 drivers/usb/gadget/built-in.o
 .debug_aranges
                0x0000000000002d30      0x6e8 lib/built-in.o
 .debug_aranges
                0x0000000000003418      0x350 lib/libfdt/built-in.o
 .debug_aranges
                0x0000000000003768       0x20 /home/rk3288-sdk/prebuilts/gcc/linux-x86/arm/arm-eabi-4.7/bin/../lib/gcc/arm-eabi/4.7/libgcc.a(_udivsi3.o)
 .debug_aranges
                0x0000000000003788       0x20 /home/rk3288-sdk/prebuilts/gcc/linux-x86/arm/arm-eabi-4.7/bin/../lib/gcc/arm-eabi/4.7/libgcc.a(_divsi3.o)
 .debug_aranges
                0x00000000000037a8       0x20 /home/rk3288-sdk/prebuilts/gcc/linux-x86/arm/arm-eabi-4.7/bin/../lib/gcc/arm-eabi/4.7/libgcc.a(_dvmd_tls.o)
 .debug_aranges
                0x00000000000037c8       0x20 /home/rk3288-sdk/prebuilts/gcc/linux-x86/arm/arm-eabi-4.7/bin/../lib/gcc/arm-eabi/4.7/libgcc.a(_lshrdi3.o)
 .debug_aranges
                0x00000000000037e8       0x20 /home/rk3288-sdk/prebuilts/gcc/linux-x86/arm/arm-eabi-4.7/bin/../lib/gcc/arm-eabi/4.7/libgcc.a(_ashldi3.o)
 .debug_aranges
                0x0000000000003808       0x20 /home/rk3288-sdk/prebuilts/gcc/linux-x86/arm/arm-eabi-4.7/bin/../lib/gcc/arm-eabi/4.7/libgcc.a(_aeabi_uldivmod.o)
 .debug_aranges
                0x0000000000003828       0x20 /home/rk3288-sdk/prebuilts/gcc/linux-x86/arm/arm-eabi-4.7/bin/../lib/gcc/arm-eabi/4.7/libgcc.a(bpabi.o)
 .debug_aranges
                0x0000000000003848       0x20 /home/rk3288-sdk/prebuilts/gcc/linux-x86/arm/arm-eabi-4.7/bin/../lib/gcc/arm-eabi/4.7/libgcc.a(_divdi3.o)
 .debug_aranges
                0x0000000000003868       0x20 /home/rk3288-sdk/prebuilts/gcc/linux-x86/arm/arm-eabi-4.7/bin/../lib/gcc/arm-eabi/4.7/libgcc.a(_udivdi3.o)

.debug_frame    0x0000000000000000     0x8c60
 .debug_frame   0x0000000000000000      0x1d0 arch/arm/cpu/armv7/built-in.o
 .debug_frame   0x00000000000001d0      0x674 arch/arm/cpu/armv7/rk32xx/built-in.o
 .debug_frame   0x0000000000000844      0x388 arch/arm/lib/built-in.o
 .debug_frame   0x0000000000000bcc     0x1ba0 board/rockchip/common/built-in.o
 .debug_frame   0x000000000000276c       0x9c board/rockchip/rk32xx/built-in.o
 .debug_frame   0x0000000000002808     0x2828 common/built-in.o
 .debug_frame   0x0000000000005030      0xbac drivers/built-in.o
 .debug_frame   0x0000000000005bdc      0x128 drivers/gpio/built-in.o
 .debug_frame   0x0000000000005d04      0x17c drivers/i2c/built-in.o
 .debug_frame   0x0000000000005e80      0x2b8 drivers/power/built-in.o
 .debug_frame   0x0000000000006138       0x5c drivers/power/charge/built-in.o
 .debug_frame   0x0000000000006194      0x438 drivers/power/fuel_gauge/built-in.o
 .debug_frame   0x00000000000065cc      0x2e8 drivers/power/pmic/built-in.o
 .debug_frame   0x00000000000068b4      0x2a8 drivers/serial/built-in.o
 .debug_frame   0x0000000000006b5c      0x4a0 drivers/usb/gadget/built-in.o
 .debug_frame   0x0000000000006ffc     0x1110 lib/built-in.o
 .debug_frame   0x000000000000810c      0xa4c lib/libfdt/built-in.o
 .debug_frame   0x0000000000008b58       0x20 /home/rk3288-sdk/prebuilts/gcc/linux-x86/arm/arm-eabi-4.7/bin/../lib/gcc/arm-eabi/4.7/libgcc.a(_udivsi3.o)
 .debug_frame   0x0000000000008b78       0x20 /home/rk3288-sdk/prebuilts/gcc/linux-x86/arm/arm-eabi-4.7/bin/../lib/gcc/arm-eabi/4.7/libgcc.a(_divsi3.o)
 .debug_frame   0x0000000000008b98       0x50 /home/rk3288-sdk/prebuilts/gcc/linux-x86/arm/arm-eabi-4.7/bin/../lib/gcc/arm-eabi/4.7/libgcc.a(bpabi.o)
 .debug_frame   0x0000000000008be8       0x3c /home/rk3288-sdk/prebuilts/gcc/linux-x86/arm/arm-eabi-4.7/bin/../lib/gcc/arm-eabi/4.7/libgcc.a(_divdi3.o)
 .debug_frame   0x0000000000008c24       0x3c /home/rk3288-sdk/prebuilts/gcc/linux-x86/arm/arm-eabi-4.7/bin/../lib/gcc/arm-eabi/4.7/libgcc.a(_udivdi3.o)

.debug_str      0x0000000000000000    0x11a7b
 .debug_str     0x0000000000000000      0x597 arch/arm/cpu/armv7/built-in.o
                                        0xbc2 (size before relaxing)
 .debug_str     0x0000000000000597     0x1650 arch/arm/cpu/armv7/rk32xx/built-in.o
                                       0x443d (size before relaxing)
 .debug_str     0x0000000000001be7     0x1142 arch/arm/lib/built-in.o
                                       0x319a (size before relaxing)
 .debug_str     0x0000000000002d29     0x3e2c board/rockchip/common/built-in.o
                                       0xe701 (size before relaxing)
 .debug_str     0x0000000000006b55       0xa5 board/rockchip/rk32xx/built-in.o
                                        0x772 (size before relaxing)
 .debug_str     0x0000000000006bfa     0x4b08 common/built-in.o
                                      0x18482 (size before relaxing)
 .debug_str     0x000000000000b702     0x23a2 drivers/built-in.o
                                       0x692c (size before relaxing)
 .debug_str     0x000000000000daa4      0x19e drivers/gpio/built-in.o
                                        0x58d (size before relaxing)
 .debug_str     0x000000000000dc42      0x23d drivers/i2c/built-in.o
                                        0x723 (size before relaxing)
 .debug_str     0x000000000000de7f      0x524 drivers/power/built-in.o
                                       0x1890 (size before relaxing)
 .debug_str     0x000000000000e3a3      0x493 drivers/power/charge/built-in.o
                                        0xa51 (size before relaxing)
 .debug_str     0x000000000000e836      0xcc0 drivers/power/fuel_gauge/built-in.o
                                       0x2220 (size before relaxing)
 .debug_str     0x000000000000f4f6      0x4a0 drivers/power/pmic/built-in.o
                                       0x2507 (size before relaxing)
 .debug_str     0x000000000000f996      0x323 drivers/serial/built-in.o
                                        0xe37 (size before relaxing)
 .debug_str     0x000000000000fcb9      0x8d9 drivers/usb/gadget/built-in.o
                                       0x302f (size before relaxing)
 .debug_str     0x0000000000010592      0xbef lib/built-in.o
                                       0x59d6 (size before relaxing)
 .debug_str     0x0000000000011181      0x773 lib/libfdt/built-in.o
                                       0x1bd3 (size before relaxing)
 .debug_str     0x00000000000118f4       0x8a /home/rk3288-sdk/prebuilts/gcc/linux-x86/arm/arm-eabi-4.7/bin/../lib/gcc/arm-eabi/4.7/libgcc.a(bpabi.o)
                                         0xc3 (size before relaxing)
 .debug_str     0x000000000001197e       0xfd /home/rk3288-sdk/prebuilts/gcc/linux-x86/arm/arm-eabi-4.7/bin/../lib/gcc/arm-eabi/4.7/libgcc.a(_divdi3.o)
                                        0x1c2 (size before relaxing)
 .debug_str     0x0000000000000000      0x1c3 /home/rk3288-sdk/prebuilts/gcc/linux-x86/arm/arm-eabi-4.7/bin/../lib/gcc/arm-eabi/4.7/libgcc.a(_udivdi3.o)

.debug_loc      0x0000000000000000    0x4b125
 .debug_loc     0x0000000000000000      0x608 arch/arm/cpu/armv7/built-in.o
 .debug_loc     0x0000000000000608     0x5e0b arch/arm/cpu/armv7/rk32xx/built-in.o
 .debug_loc     0x0000000000006413      0x99f arch/arm/lib/built-in.o
 .debug_loc     0x0000000000006db2     0xf427 board/rockchip/common/built-in.o
 .debug_loc     0x00000000000161d9      0x1bf board/rockchip/rk32xx/built-in.o
 .debug_loc     0x0000000000016398    0x140bb common/built-in.o
 .debug_loc     0x000000000002a453     0x7c39 drivers/built-in.o
 .debug_loc     0x000000000003208c      0x9e5 drivers/gpio/built-in.o
 .debug_loc     0x0000000000032a71      0xf69 drivers/i2c/built-in.o
 .debug_loc     0x00000000000339da      0xe4c drivers/power/built-in.o
 .debug_loc     0x0000000000034826      0xe70 drivers/power/charge/built-in.o
 .debug_loc     0x0000000000035696     0x2f3a drivers/power/fuel_gauge/built-in.o
 .debug_loc     0x00000000000385d0     0x245e drivers/power/pmic/built-in.o
 .debug_loc     0x000000000003aa2e      0xa1b drivers/serial/built-in.o
 .debug_loc     0x000000000003b449     0x16a6 drivers/usb/gadget/built-in.o
 .debug_loc     0x000000000003caef     0x7d08 lib/built-in.o
 .debug_loc     0x00000000000447f7     0x5465 lib/libfdt/built-in.o
 .debug_loc     0x0000000000049c5c       0xe0 /home/rk3288-sdk/prebuilts/gcc/linux-x86/arm/arm-eabi-4.7/bin/../lib/gcc/arm-eabi/4.7/libgcc.a(bpabi.o)
 .debug_loc     0x0000000000049d3c      0x9fb /home/rk3288-sdk/prebuilts/gcc/linux-x86/arm/arm-eabi-4.7/bin/../lib/gcc/arm-eabi/4.7/libgcc.a(_divdi3.o)
 .debug_loc     0x000000000004a737      0x9ee /home/rk3288-sdk/prebuilts/gcc/linux-x86/arm/arm-eabi-4.7/bin/../lib/gcc/arm-eabi/4.7/libgcc.a(_udivdi3.o)

.debug_ranges   0x0000000000000000     0x9de0
 .debug_ranges  0x0000000000000000      0x118 arch/arm/cpu/armv7/built-in.o
 .debug_ranges  0x0000000000000118      0xdd8 arch/arm/cpu/armv7/rk32xx/built-in.o
 .debug_ranges  0x0000000000000ef0      0x1e8 arch/arm/lib/built-in.o
 .debug_ranges  0x00000000000010d8     0x26d8 board/rockchip/common/built-in.o
 .debug_ranges  0x00000000000037b0       0x68 board/rockchip/rk32xx/built-in.o
 .debug_ranges  0x0000000000003818     0x2378 common/built-in.o
 .debug_ranges  0x0000000000005b90      0xdf0 drivers/built-in.o
 .debug_ranges  0x0000000000006980      0x108 drivers/gpio/built-in.o
 .debug_ranges  0x0000000000006a88      0x2d8 drivers/i2c/built-in.o
 .debug_ranges  0x0000000000006d60      0x1c8 drivers/power/built-in.o
 .debug_ranges  0x0000000000006f28      0x180 drivers/power/charge/built-in.o
 .debug_ranges  0x00000000000070a8      0xd08 drivers/power/fuel_gauge/built-in.o
 .debug_ranges  0x0000000000007db0      0x858 drivers/power/pmic/built-in.o
 .debug_ranges  0x0000000000008608      0x168 drivers/serial/built-in.o
 .debug_ranges  0x0000000000008770      0x4a0 drivers/usb/gadget/built-in.o
 .debug_ranges  0x0000000000008c10      0xa58 lib/built-in.o
 .debug_ranges  0x0000000000009668      0x680 lib/libfdt/built-in.o
 .debug_ranges  0x0000000000009ce8       0x78 /home/rk3288-sdk/prebuilts/gcc/linux-x86/arm/arm-eabi-4.7/bin/../lib/gcc/arm-eabi/4.7/libgcc.a(_divdi3.o)
 .debug_ranges  0x0000000000009d60       0x80 /home/rk3288-sdk/prebuilts/gcc/linux-x86/arm/arm-eabi-4.7/bin/../lib/gcc/arm-eabi/4.7/libgcc.a(_udivdi3.o)
